(dp1
S'output'
p2
S"<type 'exceptions.ValueError'> invalid literal for long() with base 10: 'AAA-2017'"
p3
sS'layer'
p4
S'C:\\Users\\Gabriel\\Documents\\Backend\\RAFA\\web2py\\applications\\RAFA\\controllers/default.py'
p5
sS'code'
p6
S'<code object <module> at 09773D58, file "C:\\Users\\Gabriel\\Documents\\Backend\\RAFA\\web2py\\applications\\RAFA\\controllers/default.py", line 12>'
p7
sS'snapshot'
p8
(dp9
sS'traceback'
p10
S'Traceback (most recent call last):\n  File "C:\\Users\\Gabriel\\Documents\\Backend\\RAFA\\web2py\\gluon\\restricted.py", line 219, in restricted\n    exec(ccode, environment)\n  File "C:\\Users\\Gabriel\\Documents\\Backend\\RAFA\\web2py\\applications\\RAFA\\controllers/default.py", line 192, in <module>\n  File "C:\\Users\\Gabriel\\Documents\\Backend\\RAFA\\web2py\\gluon\\globals.py", line 409, in <lambda>\n    self._caller = lambda f: f()\n  File "C:\\Users\\Gabriel\\Documents\\Backend\\RAFA\\web2py\\applications\\RAFA\\controllers/default.py", line 170, in ver_carros\n    grid = SQLFORM.grid(Carros)\n  File "C:\\Users\\Gabriel\\Documents\\Backend\\RAFA\\web2py\\gluon\\sqlhtml.py", line 2486, in grid\n    db(table[table._id.name] == request.args[-1]).delete()\n  File "C:\\Users\\Gabriel\\Documents\\Backend\\RAFA\\web2py\\gluon\\packages\\dal\\pydal\\objects.py", line 2238, in delete\n    ret = db._adapter.delete(table, self.query)\n  File "C:\\Users\\Gabriel\\Documents\\Backend\\RAFA\\web2py\\gluon\\packages\\dal\\pydal\\adapters\\sqlite.py", line 92, in delete\n    db(field.belongs(deleted)).delete()\n  File "C:\\Users\\Gabriel\\Documents\\Backend\\RAFA\\web2py\\gluon\\packages\\dal\\pydal\\objects.py", line 2238, in delete\n    ret = db._adapter.delete(table, self.query)\n  File "C:\\Users\\Gabriel\\Documents\\Backend\\RAFA\\web2py\\gluon\\packages\\dal\\pydal\\adapters\\sqlite.py", line 86, in delete\n    deleted = [x[table._id.name] for x in db(query).select(table._id)]\n  File "C:\\Users\\Gabriel\\Documents\\Backend\\RAFA\\web2py\\gluon\\packages\\dal\\pydal\\objects.py", line 2211, in select\n    return adapter.select(self.query, fields, attributes)\n  File "C:\\Users\\Gabriel\\Documents\\Backend\\RAFA\\web2py\\gluon\\packages\\dal\\pydal\\adapters\\sqlite.py", line 82, in select\n    return super(SQLite, self).select(query, fields, attributes)\n  File "C:\\Users\\Gabriel\\Documents\\Backend\\RAFA\\web2py\\gluon\\packages\\dal\\pydal\\adapters\\base.py", line 755, in select\n    colnames, sql = self._select_wcols(query, fields, **attributes)\n  File "C:\\Users\\Gabriel\\Documents\\Backend\\RAFA\\web2py\\gluon\\packages\\dal\\pydal\\adapters\\base.py", line 670, in _select_wcols\n    query = self.expand(query, query_env=query_env)\n  File "C:\\Users\\Gabriel\\Documents\\Backend\\RAFA\\web2py\\gluon\\packages\\dal\\pydal\\adapters\\base.py", line 432, in _expand\n    rv = op(first, second, **optional_args)\n  File "C:\\Users\\Gabriel\\Documents\\Backend\\RAFA\\web2py\\gluon\\packages\\dal\\pydal\\dialects\\base.py", line 248, in belongs\n    for item in second)\n  File "C:\\Users\\Gabriel\\Documents\\Backend\\RAFA\\web2py\\gluon\\packages\\dal\\pydal\\dialects\\base.py", line 248, in <genexpr>\n    for item in second)\n  File "C:\\Users\\Gabriel\\Documents\\Backend\\RAFA\\web2py\\gluon\\packages\\dal\\pydal\\dialects\\__init__.py", line 96, in expand\n    return self.adapter.expand(*args, **kwargs)\n  File "C:\\Users\\Gabriel\\Documents\\Backend\\RAFA\\web2py\\gluon\\packages\\dal\\pydal\\adapters\\base.py", line 442, in _expand\n    rv = self.represent(expression, field_type)\n  File "C:\\Users\\Gabriel\\Documents\\Backend\\RAFA\\web2py\\gluon\\packages\\dal\\pydal\\adapters\\base.py", line 379, in represent\n    return super(SQLAdapter, self).represent(obj, field_type)\n  File "C:\\Users\\Gabriel\\Documents\\Backend\\RAFA\\web2py\\gluon\\packages\\dal\\pydal\\adapters\\base.py", line 335, in represent\n    return self.representer.represent(obj, field_type)\n  File "C:\\Users\\Gabriel\\Documents\\Backend\\RAFA\\web2py\\gluon\\packages\\dal\\pydal\\representers\\__init__.py", line 251, in represent\n    rv = self.get_representer_for_type(field_type)(rv, field_type)\n  File "C:\\Users\\Gabriel\\Documents\\Backend\\RAFA\\web2py\\gluon\\packages\\dal\\pydal\\representers\\__init__.py", line 139, in __call__\n    return self.adapt(self.call(value, field_type))\n  File "C:\\Users\\Gabriel\\Documents\\Backend\\RAFA\\web2py\\gluon\\packages\\dal\\pydal\\representers\\__init__.py", line 133, in _call_with_extras\n    return self.inner_call(value, **extras)\n  File "C:\\Users\\Gabriel\\Documents\\Backend\\RAFA\\web2py\\gluon\\packages\\dal\\pydal\\representers\\__init__.py", line 124, in _inner_call\n    return self.obj.f(self.representer, value, **kwargs)\n  File "C:\\Users\\Gabriel\\Documents\\Backend\\RAFA\\web2py\\gluon\\packages\\dal\\pydal\\representers\\base.py", line 141, in _reference\n    return str(long(value))\nValueError: invalid literal for long() with base 10: \'AAA-2017\'\n'
p11
s.