(dp1
S'output'
p2
S"<type 'exceptions.Exception'> Validation error, field:carro <gluon.validators.IS_NOT_IN_DB object at 0x09866FD0>"
p3
sS'layer'
p4
S'C:\\Users\\Gabriel\\Documents\\Backend\\RAFA\\web2py\\applications\\RAFA\\controllers/default.py'
p5
sS'code'
p6
S'<code object <module> at 049872A8, file "C:\\Users\\Gabriel\\Documents\\Backend\\RAFA\\web2py\\applications\\RAFA\\controllers/default.py", line 12>'
p7
sS'snapshot'
p8
(dp9
S'exception'
p10
(dp11
S'__getslice__'
p12
S"<method-wrapper '__getslice__' of exceptions.Exception object>"
p13
sS'__str__'
p14
S"<method-wrapper '__str__' of exceptions.Exception object>"
p15
sS'__reduce__'
p16
S'<built-in method __reduce__ of exceptions.Exception object>'
p17
sS'__dict__'
p18
S'{}'
p19
sS'message'
p20
S"'Validation error, field:carro <gluon.validators.IS_NOT_IN_DB object at 0x09866FD0>'"
p21
sS'__sizeof__'
p22
S'<built-in method __sizeof__ of exceptions.Exception object>'
p23
sS'__init__'
p24
S"<method-wrapper '__init__' of exceptions.Exception object>"
p25
sS'__setattr__'
p26
S"<method-wrapper '__setattr__' of exceptions.Exception object>"
p27
sS'__reduce_ex__'
p28
S'<built-in method __reduce_ex__ of exceptions.Exception object>'
p29
sS'__new__'
p30
S'<built-in method __new__ of type object>'
p31
sS'__format__'
p32
S'<built-in method __format__ of exceptions.Exception object>'
p33
sS'__class__'
p34
S"<type 'exceptions.Exception'>"
p35
sS'__doc__'
p36
S"'Common base class for all non-exit exceptions.'"
p37
sS'__getitem__'
p38
S"<method-wrapper '__getitem__' of exceptions.Exception object>"
p39
sS'__setstate__'
p40
S'<built-in method __setstate__ of exceptions.Exception object>'
p41
sS'__getattribute__'
p42
S"<method-wrapper '__getattribute__' of exceptions.Exception object>"
p43
sS'args'
p44
S"('Validation error, field:carro <gluon.validators.IS_NOT_IN_DB object at 0x09866FD0>',)"
p45
sS'__subclasshook__'
p46
S'<built-in method __subclasshook__ of type object>'
p47
sS'__unicode__'
p48
S'<built-in method __unicode__ of exceptions.Exception object>'
p49
sS'__delattr__'
p50
S"<method-wrapper '__delattr__' of exceptions.Exception object>"
p51
sS'__repr__'
p52
S"<method-wrapper '__repr__' of exceptions.Exception object>"
p53
sS'__hash__'
p54
S"<method-wrapper '__hash__' of exceptions.Exception object>"
p55
ssS'evalue'
p56
S'Validation error, field:carro <gluon.validators.IS_NOT_IN_DB object at 0x09866FD0>'
p57
sS'request'
p58
cgluon.html
XML_unpickle
p59
(S's7a\x00\x00<div><table><tr><td style="font-weight:bold;vertical-align:top;">ajax</td><td style="vertical-align:top;">:</td><td><div>False</div></td></tr><tr><td style="font-weight:bold;vertical-align:top;">application</td><td style="vertical-align:top;">:</td><td><div>RAFA</div></td></tr><tr><td style="font-weight:bold;vertical-align:top;">args</td><td style="vertical-align:top;">:</td><td><div><table></table></div></td></tr><tr><td style="font-weight:bold;vertical-align:top;">cid</td><td style="vertical-align:top;">:</td><td><div>None</div></td></tr><tr><td style="font-weight:bold;vertical-align:top;">client</td><td style="vertical-align:top;">:</td><td><div>127.0.0.1</div></td></tr><tr><td style="font-weight:bold;vertical-align:top;">controller</td><td style="vertical-align:top;">:</td><td><div>default</div></td></tr><tr><td style="font-weight:bold;vertical-align:top;">cookies</td><td style="vertical-align:top;">:</td><td><div><table><tr><td style="font-weight:bold;vertical-align:top;">session_id_admin</td><td style="vertical-align:top;">:</td><td><div>127.0.0.1-9ee2fc74-1f0b-4a28-b340-7df29d42c738<table><tr><td style="font-weight:bold;vertical-align:top;">comment</td><td style="vertical-align:top;">:</td><td><div></div></td></tr><tr><td style="font-weight:bold;vertical-align:top;">domain</td><td style="vertical-align:top;">:</td><td><div></div></td></tr><tr><td style="font-weight:bold;vertical-align:top;">expires</td><td style="vertical-align:top;">:</td><td><div></div></td></tr><tr><td style="font-weight:bold;vertical-align:top;">httponly</td><td style="vertical-align:top;">:</td><td><div></div></td></tr><tr><td style="font-weight:bold;vertical-align:top;">max-age</td><td style="vertical-align:top;">:</td><td><div></div></td></tr><tr><td style="font-weight:bold;vertical-align:top;">path</td><td style="vertical-align:top;">:</td><td><div></div></td></tr><tr><td style="font-weight:bold;vertical-align:top;">secure</td><td style="vertical-align:top;">:</td><td><div></div></td></tr><tr><td style="font-weight:bold;vertical-align:top;">version</td><td style="vertical-align:top;">:</td><td><div></div></td></tr></table></div></td></tr><tr><td style="font-weight:bold;vertical-align:top;">session_id_rafa</td><td style="vertical-align:top;">:</td><td><div>127.0.0.1-5144cc2a-efcc-4eac-8179-6a44db2eb1ab<table><tr><td style="font-weight:bold;vertical-align:top;">comment</td><td style="vertical-align:top;">:</td><td><div></div></td></tr><tr><td style="font-weight:bold;vertical-align:top;">domain</td><td style="vertical-align:top;">:</td><td><div></div></td></tr><tr><td style="font-weight:bold;vertical-align:top;">expires</td><td style="vertical-align:top;">:</td><td><div></div></td></tr><tr><td style="font-weight:bold;vertical-align:top;">httponly</td><td style="vertical-align:top;">:</td><td><div></div></td></tr><tr><td style="font-weight:bold;vertical-align:top;">max-age</td><td style="vertical-align:top;">:</td><td><div></div></td></tr><tr><td style="font-weight:bold;vertical-align:top;">path</td><td style="vertical-align:top;">:</td><td><div></div></td></tr><tr><td style="font-weight:bold;vertical-align:top;">secure</td><td style="vertical-align:top;">:</td><td><div></div></td></tr><tr><td style="font-weight:bold;vertical-align:top;">version</td><td style="vertical-align:top;">:</td><td><div></div></td></tr></table></div></td></tr></table></div></td></tr><tr><td style="font-weight:bold;vertical-align:top;">env</td><td style="vertical-align:top;">:</td><td><div><table><tr><td style="font-weight:bold;vertical-align:top;">CONTENT_LENGTH</td><td style="vertical-align:top;">:</td><td><div>392</div></td></tr><tr><td style="font-weight:bold;vertical-align:top;">CONTENT_TYPE</td><td style="vertical-align:top;">:</td><td><div>multipart/form-data; boundary=----WebKitFormBoundaryDjSjGTcqlICViF8Z</div></td></tr><tr><td style="font-weight:bold;vertical-align:top;">HTTP_ACCEPT</td><td style="vertical-align:top;">:</td><td><div>text/html,application/xhtml+xml,application/xml;q=0.9,image/webp,image/apng,*/*;q=0.8</div></td></tr><tr><td style="font-weight:bold;vertical-align:top;">HTTP_ACCEPT_ENCODING</td><td style="vertical-align:top;">:</td><td><div>gzip, deflate, br</div></td></tr><tr><td style="font-weight:bold;vertical-align:top;">HTTP_ACCEPT_LANGUAGE</td><td style="vertical-align:top;">:</td><td><div>pt-BR,pt;q=0.8,en-US;q=0.6,en;q=0.4</div></td></tr><tr><td style="font-weight:bold;vertical-align:top;">HTTP_CACHE_CONTROL</td><td style="vertical-align:top;">:</td><td><div>max-age=0</div></td></tr><tr><td style="font-weight:bold;vertical-align:top;">HTTP_CONNECTION</td><td style="vertical-align:top;">:</td><td><div>keep-alive</div></td></tr><tr><td style="font-weight:bold;vertical-align:top;">HTTP_CONTENT_LENGTH</td><td style="vertical-align:top;">:</td><td><div>392</div></td></tr><tr><td style="font-weight:bold;vertical-align:top;">HTTP_CONTENT_TYPE</td><td style="vertical-align:top;">:</td><td><div>multipart/form-data; boundary=----WebKitFormBoundaryDjSjGTcqlICViF8Z</div></td></tr><tr><td style="font-weight:bold;vertical-align:top;">HTTP_COOKIE</td><td style="vertical-align:top;">:</td><td><div>session_id_admin=127.0.0.1-9ee2fc74-1f0b-4a28-b340-7df29d42c738; session_id_rafa=127.0.0.1-5144cc2a-efcc-4eac-8179-6a44db2eb1ab</div></td></tr><tr><td style="font-weight:bold;vertical-align:top;">HTTP_HOST</td><td style="vertical-align:top;">:</td><td><div>127.0.0.1:8000</div></td></tr><tr><td style="font-weight:bold;vertical-align:top;">HTTP_ORIGIN</td><td style="vertical-align:top;">:</td><td><div>http://127.0.0.1:8000</div></td></tr><tr><td style="font-weight:bold;vertical-align:top;">HTTP_REFERER</td><td style="vertical-align:top;">:</td><td><div>http://127.0.0.1:8000/RAFA/default/novo_estoque</div></td></tr><tr><td style="font-weight:bold;vertical-align:top;">HTTP_UPGRADE_INSECURE_REQUESTS</td><td style="vertical-align:top;">:</td><td><div>1</div></td></tr><tr><td style="font-weight:bold;vertical-align:top;">HTTP_USER_AGENT</td><td style="vertical-align:top;">:</td><td><div>Mozilla/5.0 (Windows NT 10.0; Win64; x64) AppleWebKit/537.36 (KHTML, like Gecko) Chrome/61.0.3163.100 Safari/537.36</div></td></tr><tr><td style="font-weight:bold;vertical-align:top;">PATH_INFO</td><td style="vertical-align:top;">:</td><td><div>/RAFA/default/novo_estoque</div></td></tr><tr><td style="font-weight:bold;vertical-align:top;">QUERY_STRING</td><td style="vertical-align:top;">:</td><td><div></div></td></tr><tr><td style="font-weight:bold;vertical-align:top;">REMOTE_ADDR</td><td style="vertical-align:top;">:</td><td><div>127.0.0.1</div></td></tr><tr><td style="font-weight:bold;vertical-align:top;">REMOTE_PORT</td><td style="vertical-align:top;">:</td><td><div>51944</div></td></tr><tr><td style="font-weight:bold;vertical-align:top;">REQUEST_METHOD</td><td style="vertical-align:top;">:</td><td><div>POST</div></td></tr><tr><td style="font-weight:bold;vertical-align:top;">SCRIPT_NAME</td><td style="vertical-align:top;">:</td><td><div></div></td></tr><tr><td style="font-weight:bold;vertical-align:top;">SERVER_NAME</td><td style="vertical-align:top;">:</td><td><div>DESKTOP-L20575K</div></td></tr><tr><td style="font-weight:bold;vertical-align:top;">SERVER_PORT</td><td style="vertical-align:top;">:</td><td><div>8000</div></td></tr><tr><td style="font-weight:bold;vertical-align:top;">SERVER_PROTOCOL</td><td style="vertical-align:top;">:</td><td><div>HTTP/1.1</div></td></tr><tr><td style="font-weight:bold;vertical-align:top;">SERVER_SOFTWARE</td><td style="vertical-align:top;">:</td><td><div>Rocket 1.2.6</div></td></tr><tr><td style="font-weight:bold;vertical-align:top;">app_folders</td><td style="vertical-align:top;">:</td><td><div>set([&#x27;C:\\\\Users\\\\Gabriel\\\\Documents\\\\Backend\\\\RAFA\\\\web2py\\\\applications\\\\admin\\\\&#x27;, &#x27;C:\\\\Users\\\\Gabriel\\\\Documents\\\\Backend\\\\RAFA\\\\web2py\\\\applications\\\\RAFA\\\\&#x27;])</div></td></tr><tr><td style="font-weight:bold;vertical-align:top;">applications_parent</td><td style="vertical-align:top;">:</td><td><div>C:\\Users\\Gabriel\\Documents\\Backend\\RAFA\\web2py</div></td></tr><tr><td style="font-weight:bold;vertical-align:top;">cmd_args</td><td style="vertical-align:top;">:</td><td><div><table></table></div></td></tr><tr><td style="font-weight:bold;vertical-align:top;">cmd_options</td><td style="vertical-align:top;">:</td><td><div>&lt;Values at 0x30160f8: {&#x27;verbose&#x27;: False, &#x27;ip&#x27;: &#x27;127.0.0.1&#x27;, &#x27;debuglevel&#x27;: 30, &#x27;with_scheduler&#x27;: False, &#x27;shutdown_timeout&#x27;: 5, &#x27;taskbar&#x27;: False, &#x27;with_coverage&#x27;: False, &#x27;pid_filename&#x27;: &#x27;httpserver.pid&#x27;, &#x27;maxthreads&#x27;: None, &#x27;softcron&#x27;: False, &#x27;server_name&#x27;: &#x27;DESKTOP-L20575K&#x27;, &#x27;bpython&#x27;: False, &#x27;nogui&#x27;: False, &#x27;port&#x27;: 8000, &#x27;print_errors&#x27;: False, &#x27;extcron&#x27;: False, &#x27;runcron&#x27;: False, &#x27;run_system_tests&#x27;: False, &#x27;test&#x27;: None, &#x27;folder&#x27;: &#x27;C:\\\\Users\\\\Gabriel\\\\Documents\\\\Backend\\\\RAFA\\\\web2py&#x27;, &#x27;config&#x27;: &#x27;&#x27;, &#x27;minthreads&#x27;: None, &#x27;shell&#x27;: None, &#x27;run&#x27;: &#x27;&#x27;, &#x27;log_filename&#x27;: &#x27;httpserver.log&#x27;, &#x27;profiler_dir&#x27;: None, &#x27;args&#x27;: [&#x27;&#x27;], &#x27;socket_timeout&#x27;: 5, &#x27;ssl_ca_certificate&#x27;: None, &#x27;scheduler&#x27;: None, &#x27;interfaces&#x27;: None, &#x27;ssl_private_key&#x27;: &#x27;&#x27;, &#x27;gae&#x27;: None, &#x27;password&#x27;: &#x27;******&#x27;, &#x27;request_queue_size&#x27;: 5, &#x27;ssl_certificate&#x27;: &#x27;&#x27;, &#x27;cronjob&#x27;: False, &#x27;numthreads&#x27;: None, &#x27;quiet&#x27;: False, &#x27;import_models&#x27;: False, &#x27;timeout&#x27;: 10, &#x27;plain&#x27;: False, &#x27;nobanner&#x27;: False}&gt;</div></td></tr><tr><td style="font-weight:bold;vertical-align:top;">content_length</td><td style="vertical-align:top;">:</td><td><div>392</div></td></tr><tr><td style="font-weight:bold;vertical-align:top;">content_type</td><td style="vertical-align:top;">:</td><td><div>multipart/form-data; boundary=----WebKitFormBoundaryDjSjGTcqlICViF8Z</div></td></tr><tr><td style="font-weight:bold;vertical-align:top;">db_sessions</td><td style="vertical-align:top;">:</td><td><div>set([])</div></td></tr><tr><td style="font-weight:bold;vertical-align:top;">debugging</td><td style="vertical-align:top;">:</td><td><div>False</div></td></tr><tr><td style="font-weight:bold;vertical-align:top;">gluon_parent</td><td style="vertical-align:top;">:</td><td><div>C:\\Users\\Gabriel\\Documents\\Backend\\RAFA\\web2py</div></td></tr><tr><td style="font-weight:bold;vertical-align:top;">http_accept</td><td style="vertical-align:top;">:</td><td><div>text/html,application/xhtml+xml,application/xml;q=0.9,image/webp,image/apng,*/*;q=0.8</div></td></tr><tr><td style="font-weight:bold;vertical-align:top;">http_accept_encoding</td><td style="vertical-align:top;">:</td><td><div>gzip, deflate, br</div></td></tr><tr><td style="font-weight:bold;vertical-align:top;">http_accept_language</td><td style="vertical-align:top;">:</td><td><div>pt-BR,pt;q=0.8,en-US;q=0.6,en;q=0.4</div></td></tr><tr><td style="font-weight:bold;vertical-align:top;">http_cache_control</td><td style="vertical-align:top;">:</td><td><div>max-age=0</div></td></tr><tr><td style="font-weight:bold;vertical-align:top;">http_connection</td><td style="vertical-align:top;">:</td><td><div>keep-alive</div></td></tr><tr><td style="font-weight:bold;vertical-align:top;">http_content_length</td><td style="vertical-align:top;">:</td><td><div>392</div></td></tr><tr><td style="font-weight:bold;vertical-align:top;">http_content_type</td><td style="vertical-align:top;">:</td><td><div>multipart/form-data; boundary=----WebKitFormBoundaryDjSjGTcqlICViF8Z</div></td></tr><tr><td style="font-weight:bold;vertical-align:top;">http_cookie</td><td style="vertical-align:top;">:</td><td><div>session_id_admin=127.0.0.1-9ee2fc74-1f0b-4a28-b340-7df29d42c738; session_id_rafa=127.0.0.1-5144cc2a-efcc-4eac-8179-6a44db2eb1ab</div></td></tr><tr><td style="font-weight:bold;vertical-align:top;">http_host</td><td style="vertical-align:top;">:</td><td><div>127.0.0.1:8000</div></td></tr><tr><td style="font-weight:bold;vertical-align:top;">http_origin</td><td style="vertical-align:top;">:</td><td><div>http://127.0.0.1:8000</div></td></tr><tr><td style="font-weight:bold;vertical-align:top;">http_referer</td><td style="vertical-align:top;">:</td><td><div>http://127.0.0.1:8000/RAFA/default/novo_estoque</div></td></tr><tr><td style="font-weight:bold;vertical-align:top;">http_upgrade_insecure_requests</td><td style="vertical-align:top;">:</td><td><div>1</div></td></tr><tr><td style="font-weight:bold;vertical-align:top;">http_user_agent</td><td style="vertical-align:top;">:</td><td><div>Mozilla/5.0 (Windows NT 10.0; Win64; x64) AppleWebKit/537.36 (KHTML, like Gecko) Chrome/61.0.3163.100 Safari/537.36</div></td></tr><tr><td style="font-weight:bold;vertical-align:top;">is_jython</td><td style="vertical-align:top;">:</td><td><div>False</div></td></tr><tr><td style="font-weight:bold;vertical-align:top;">is_py2</td><td style="vertical-align:top;">:</td><td><div>True</div></td></tr><tr><td style="font-weight:bold;vertical-align:top;">is_pypy</td><td style="vertical-align:top;">:</td><td><div>False</div></td></tr><tr><td style="font-weight:bold;vertical-align:top;">is_source</td><td style="vertical-align:top;">:</td><td><div>False</div></td></tr><tr><td style="font-weight:bold;vertical-align:top;">local_hosts</td><td style="vertical-align:top;">:</td><td><div><table><tr><td><div>fe80::2449:9c8:4527:9ba8%3</div></td></tr><tr><td><div>DESKTOP-L20575K</div></td></tr><tr><td><div>::ffff:127.0.0.1</div></td></tr><tr><td><div>fe80::9563:d3b:22c2:93a0%16</div></td></tr><tr><td><div>::1</div></td></tr><tr><td><div>192.168.0.111</div></td></tr><tr><td><div>2001:0:9d38:78cf:2449:9c8:4527:9ba8</div></td></tr><tr><td><div>127.0.0.1</div></td></tr></table></div></td></tr><tr><td style="font-weight:bold;vertical-align:top;">path_info</td><td style="vertical-align:top;">:</td><td><div>/RAFA/default/novo_estoque</div></td></tr><tr><td style="font-weight:bold;vertical-align:top;">query_string</td><td style="vertical-align:top;">:</td><td><div></div></td></tr><tr><td style="font-weight:bold;vertical-align:top;">remote_addr</td><td style="vertical-align:top;">:</td><td><div>127.0.0.1</div></td></tr><tr><td style="font-weight:bold;vertical-align:top;">remote_port</td><td style="vertical-align:top;">:</td><td><div>51944</div></td></tr><tr><td style="font-weight:bold;vertical-align:top;">request_method</td><td style="vertical-align:top;">:</td><td><div>POST</div></td></tr><tr><td style="font-weight:bold;vertical-align:top;">request_uri</td><td style="vertical-align:top;">:</td><td><div>/RAFA/default/novo_estoque</div></td></tr><tr><td style="font-weight:bold;vertical-align:top;">script_name</td><td style="vertical-align:top;">:</td><td><div></div></td></tr><tr><td style="font-weight:bold;vertical-align:top;">server_name</td><td style="vertical-align:top;">:</td><td><div>DESKTOP-L20575K</div></td></tr><tr><td style="font-weight:bold;vertical-align:top;">server_port</td><td style="vertical-align:top;">:</td><td><div>8000</div></td></tr><tr><td style="font-weight:bold;vertical-align:top;">server_protocol</td><td style="vertical-align:top;">:</td><td><div>HTTP/1.1</div></td></tr><tr><td style="font-weight:bold;vertical-align:top;">server_software</td><td style="vertical-align:top;">:</td><td><div>Rocket 1.2.6</div></td></tr><tr><td style="font-weight:bold;vertical-align:top;">web2py_path</td><td style="vertical-align:top;">:</td><td><div>C:\\Users\\Gabriel\\Documents\\Backend\\RAFA\\web2py</div></td></tr><tr><td style="font-weight:bold;vertical-align:top;">web2py_version</td><td style="vertical-align:top;">:</td><td><div>2.15.2-stable+timestamp.2017.07.19.12.18.41</div></td></tr><tr><td style="font-weight:bold;vertical-align:top;">wsgi.errors</td><td style="vertical-align:top;">:</td><td><div>&lt;open file &#x27;&lt;stderr&gt;&#x27;, mode &#x27;w&#x27; at 0x021ED0D0&gt;</div></td></tr><tr><td style="font-weight:bold;vertical-align:top;">wsgi.file_wrapper</td><td style="vertical-align:top;">:</td><td><div>&lt;class wsgiref.util.FileWrapper at 0x02F59180&gt;</div></td></tr><tr><td style="font-weight:bold;vertical-align:top;">wsgi.input</td><td style="vertical-align:top;">:</td><td><div>&lt;socket._fileobject object at 0x047CCEB0&gt;</div></td></tr><tr><td style="font-weight:bold;vertical-align:top;">wsgi.multiprocess</td><td style="vertical-align:top;">:</td><td><div>False</div></td></tr><tr><td style="font-weight:bold;vertical-align:top;">wsgi.multithread</td><td style="vertical-align:top;">:</td><td><div>True</div></td></tr><tr><td style="font-weight:bold;vertical-align:top;">wsgi.run_once</td><td style="vertical-align:top;">:</td><td><div>False</div></td></tr><tr><td style="font-weight:bold;vertical-align:top;">wsgi.url_scheme</td><td style="vertical-align:top;">:</td><td><div>http</div></td></tr><tr><td style="font-weight:bold;vertical-align:top;">wsgi.version</td><td style="vertical-align:top;">:</td><td><div><table><tr><td><div>1</div></td></tr><tr><td><div>0</div></td></tr></table></div></td></tr><tr><td style="font-weight:bold;vertical-align:top;">wsgi_errors</td><td style="vertical-align:top;">:</td><td><div>&lt;open file &#x27;&lt;stderr&gt;&#x27;, mode &#x27;w&#x27; at 0x021ED0D0&gt;</div></td></tr><tr><td style="font-weight:bold;vertical-align:top;">wsgi_file_wrapper</td><td style="vertical-align:top;">:</td><td><div>&lt;class wsgiref.util.FileWrapper at 0x02F59180&gt;</div></td></tr><tr><td style="font-weight:bold;vertical-align:top;">wsgi_input</td><td style="vertical-align:top;">:</td><td><div>&lt;socket._fileobject object at 0x047CCEB0&gt;</div></td></tr><tr><td style="font-weight:bold;vertical-align:top;">wsgi_multiprocess</td><td style="vertical-align:top;">:</td><td><div>False</div></td></tr><tr><td style="font-weight:bold;vertical-align:top;">wsgi_multithread</td><td style="vertical-align:top;">:</td><td><div>True</div></td></tr><tr><td style="font-weight:bold;vertical-align:top;">wsgi_run_once</td><td style="vertical-align:top;">:</td><td><div>False</div></td></tr><tr><td style="font-weight:bold;vertical-align:top;">wsgi_url_scheme</td><td style="vertical-align:top;">:</td><td><div>http</div></td></tr><tr><td style="font-weight:bold;vertical-align:top;">wsgi_version</td><td style="vertical-align:top;">:</td><td><div><table><tr><td><div>1</div></td></tr><tr><td><div>0</div></td></tr></table></div></td></tr></table></div></td></tr><tr><td style="font-weight:bold;vertical-align:top;">extension</td><td style="vertical-align:top;">:</td><td><div>html</div></td></tr><tr><td style="font-weight:bold;vertical-align:top;">folder</td><td style="vertical-align:top;">:</td><td><div>C:\\Users\\Gabriel\\Documents\\Backend\\RAFA\\web2py\\applications\\RAFA\\</div></td></tr><tr><td style="font-weight:bold;vertical-align:top;">function</td><td style="vertical-align:top;">:</td><td><div>novo_estoque</div></td></tr><tr><td style="font-weight:bold;vertical-align:top;">global_settings</td><td style="vertical-align:top;">:</td><td><div><table><tr><td style="font-weight:bold;vertical-align:top;">app_folders</td><td style="vertical-align:top;">:</td><td><div>set([&#x27;C:\\\\Users\\\\Gabriel\\\\Documents\\\\Backend\\\\RAFA\\\\web2py\\\\applications\\\\admin\\\\&#x27;, &#x27;C:\\\\Users\\\\Gabriel\\\\Documents\\\\Backend\\\\RAFA\\\\web2py\\\\applications\\\\RAFA\\\\&#x27;])</div></td></tr><tr><td style="font-weight:bold;vertical-align:top;">applications_parent</td><td style="vertical-align:top;">:</td><td><div>C:\\Users\\Gabriel\\Documents\\Backend\\RAFA\\web2py</div></td></tr><tr><td style="font-weight:bold;vertical-align:top;">cmd_args</td><td style="vertical-align:top;">:</td><td><div><table></table></div></td></tr><tr><td style="font-weight:bold;vertical-align:top;">cmd_options</td><td style="vertical-align:top;">:</td><td><div>&lt;Values at 0x30160f8: {&#x27;verbose&#x27;: False, &#x27;ip&#x27;: &#x27;127.0.0.1&#x27;, &#x27;debuglevel&#x27;: 30, &#x27;with_scheduler&#x27;: False, &#x27;shutdown_timeout&#x27;: 5, &#x27;taskbar&#x27;: False, &#x27;with_coverage&#x27;: False, &#x27;pid_filename&#x27;: &#x27;httpserver.pid&#x27;, &#x27;maxthreads&#x27;: None, &#x27;softcron&#x27;: False, &#x27;server_name&#x27;: &#x27;DESKTOP-L20575K&#x27;, &#x27;bpython&#x27;: False, &#x27;nogui&#x27;: False, &#x27;port&#x27;: 8000, &#x27;print_errors&#x27;: False, &#x27;extcron&#x27;: False, &#x27;runcron&#x27;: False, &#x27;run_system_tests&#x27;: False, &#x27;test&#x27;: None, &#x27;folder&#x27;: &#x27;C:\\\\Users\\\\Gabriel\\\\Documents\\\\Backend\\\\RAFA\\\\web2py&#x27;, &#x27;config&#x27;: &#x27;&#x27;, &#x27;minthreads&#x27;: None, &#x27;shell&#x27;: None, &#x27;run&#x27;: &#x27;&#x27;, &#x27;log_filename&#x27;: &#x27;httpserver.log&#x27;, &#x27;profiler_dir&#x27;: None, &#x27;args&#x27;: [&#x27;&#x27;], &#x27;socket_timeout&#x27;: 5, &#x27;ssl_ca_certificate&#x27;: None, &#x27;scheduler&#x27;: None, &#x27;interfaces&#x27;: None, &#x27;ssl_private_key&#x27;: &#x27;&#x27;, &#x27;gae&#x27;: None, &#x27;password&#x27;: &#x27;******&#x27;, &#x27;request_queue_size&#x27;: 5, &#x27;ssl_certificate&#x27;: &#x27;&#x27;, &#x27;cronjob&#x27;: False, &#x27;numthreads&#x27;: None, &#x27;quiet&#x27;: False, &#x27;import_models&#x27;: False, &#x27;timeout&#x27;: 10, &#x27;plain&#x27;: False, &#x27;nobanner&#x27;: False}&gt;</div></td></tr><tr><td style="font-weight:bold;vertical-align:top;">db_sessions</td><td style="vertical-align:top;">:</td><td><div>set([])</div></td></tr><tr><td style="font-weight:bold;vertical-align:top;">debugging</td><td style="vertical-align:top;">:</td><td><div>False</div></td></tr><tr><td style="font-weight:bold;vertical-align:top;">gluon_parent</td><td style="vertical-align:top;">:</td><td><div>C:\\Users\\Gabriel\\Documents\\Backend\\RAFA\\web2py</div></td></tr><tr><td style="font-weight:bold;vertical-align:top;">is_jython</td><td style="vertical-align:top;">:</td><td><div>False</div></td></tr><tr><td style="font-weight:bold;vertical-align:top;">is_py2</td><td style="vertical-align:top;">:</td><td><div>True</div></td></tr><tr><td style="font-weight:bold;vertical-align:top;">is_pypy</td><td style="vertical-align:top;">:</td><td><div>False</div></td></tr><tr><td style="font-weight:bold;vertical-align:top;">is_source</td><td style="vertical-align:top;">:</td><td><div>False</div></td></tr><tr><td style="font-weight:bold;vertical-align:top;">local_hosts</td><td style="vertical-align:top;">:</td><td><div><table><tr><td><div>fe80::2449:9c8:4527:9ba8%3</div></td></tr><tr><td><div>DESKTOP-L20575K</div></td></tr><tr><td><div>::ffff:127.0.0.1</div></td></tr><tr><td><div>fe80::9563:d3b:22c2:93a0%16</div></td></tr><tr><td><div>::1</div></td></tr><tr><td><div>192.168.0.111</div></td></tr><tr><td><div>2001:0:9d38:78cf:2449:9c8:4527:9ba8</div></td></tr><tr><td><div>127.0.0.1</div></td></tr></table></div></td></tr><tr><td style="font-weight:bold;vertical-align:top;">web2py_version</td><td style="vertical-align:top;">:</td><td><div>2.15.2-stable+timestamp.2017.07.19.12.18.41</div></td></tr></table></div></td></tr><tr><td style="font-weight:bold;vertical-align:top;">is_https</td><td style="vertical-align:top;">:</td><td><div>False</div></td></tr><tr><td style="font-weight:bold;vertical-align:top;">is_local</td><td style="vertical-align:top;">:</td><td><div>True</div></td></tr><tr><td style="font-weight:bold;vertical-align:top;">is_restful</td><td style="vertical-align:top;">:</td><td><div>False</div></td></tr><tr><td style="font-weight:bold;vertical-align:top;">is_scheduler</td><td style="vertical-align:top;">:</td><td><div>False</div></td></tr><tr><td style="font-weight:bold;vertical-align:top;">is_shell</td><td style="vertical-align:top;">:</td><td><div>False</div></td></tr><tr><td style="font-weight:bold;vertical-align:top;">now</td><td style="vertical-align:top;">:</td><td><div>datetime.datetime(2017, 11, 5, 17, 8, 0, 183000)</div></td></tr><tr><td style="font-weight:bold;vertical-align:top;">raw_args</td><td style="vertical-align:top;">:</td><td><div></div></td></tr><tr><td style="font-weight:bold;vertical-align:top;">raw_extension</td><td style="vertical-align:top;">:</td><td><div>None</div></td></tr><tr><td style="font-weight:bold;vertical-align:top;">url</td><td style="vertical-align:top;">:</td><td><div>/RAFA/default/novo_estoque</div></td></tr><tr><td style="font-weight:bold;vertical-align:top;">utcnow</td><td style="vertical-align:top;">:</td><td><div>datetime.datetime(2017, 11, 5, 19, 8, 0, 183000)</div></td></tr><tr><td style="font-weight:bold;vertical-align:top;">wsgi</td><td style="vertical-align:top;">:</td><td><div>&lt;gluon.main.LazyWSGI object at 0x04234430&gt;</div></td></tr></table></div>'
tRp60
sS'frames'
p61
(lp62
(dp63
S'file'
p64
S'C:\\Users\\Gabriel\\Documents\\Backend\\RAFA\\web2py\\gluon\\restricted.py'
p65
sS'dump'
p66
(dp67
S'environment'
p68
S"{'A': <class 'gluon.html.A'>, 'ANY_OF': <class 'gluon.validators.ANY_OF'>, 'ASSIGNJS': <function ASSIGNJS>, 'AppConfig': <function AppConfig>, 'Auth': <class 'gluon.tools.Auth'>, 'B': <class 'gluon.html.B'>, 'BEAUTIFY': <class 'gluon.html.BEAUTIFY'>, 'BODY': <class 'gluon.html.BODY'>, 'BR': <class 'gluon.html.BR'>, 'BUTTON': <class 'gluon.html.BUTTON'>, ...}"
p69
sS'ccode'
p70
S'<code object <module> at 049872A8, file "C:\\User...plications\\RAFA\\controllers/default.py", line 12>'
p71
ssS'lnum'
p72
I219
sS'lines'
p73
(dp74
I214
S'    if environment is None:'
p75
sI215
S'        environment = {}'
p76
sI216
S"    environment['__file__'] = layer"
p77
sI217
S"    environment['__name__'] = '__restricted__'"
p78
sI218
S'    try:'
p79
sI219
S'        exec(ccode, environment)'
p80
sI220
S'    except HTTP:'
p81
sI221
S'        raise'
p82
sI222
S'    except RestrictedError:'
p83
sI223
S'        # do not encapsulate (obfuscate) the original RestrictedError'
p84
ssS'call'
p85
S'(ccode=<code object <module> at 049872A8, file "C:\\User...plications\\RAFA\\controllers/default.py", line 12>, environment={\'A\': <class \'gluon.html.A\'>, \'ANY_OF\': <class \'gluon.validators.ANY_OF\'>, \'ASSIGNJS\': <function ASSIGNJS>, \'AppConfig\': <function AppConfig>, \'Auth\': <class \'gluon.tools.Auth\'>, \'B\': <class \'gluon.html.B\'>, \'BEAUTIFY\': <class \'gluon.html.BEAUTIFY\'>, \'BODY\': <class \'gluon.html.BODY\'>, \'BR\': <class \'gluon.html.BR\'>, \'BUTTON\': <class \'gluon.html.BUTTON\'>, ...}, layer=r\'C:\\Users\\Gabriel\\Documents\\Backend\\RAFA\\web2py\\applications\\RAFA\\controllers/default.py\')'
p86
sS'func'
p87
S'restricted'
p88
sa(dp89
g64
S'C:\\Users\\Gabriel\\Documents\\Backend\\RAFA\\web2py\\applications\\RAFA\\controllers\\default.py'
p90
sg66
(dp91
sg72
I192
sg73
(dp92
I182
S'    grid = SQLFORM.grid(CarrosEstoque)'
p93
sI183
S'    return dict(grid=grid)'
p94
sI184
S''
sI185
S'def ver_consig():'
p95
sI186
S'    grid = SQLFORM.grid(CarrosConsig)'
p96
sI187
S'    return dict(grid=grid)'
p97
sI188
S''
sI189
S'def ver_despesas():'
p98
sI190
S'    grid = SQLFORM.grid(Despesas)'
p99
sI191
S'    return dict(grid=grid)'
p100
ssg85
S'()'
p101
sg87
S'<module>'
p102
sa(dp103
g64
S'C:\\Users\\Gabriel\\Documents\\Backend\\RAFA\\web2py\\gluon\\globals.py'
p104
sg66
(dp105
S'self'
p106
S'undefined'
p107
sS'f'
S'<function novo_estoque>'
p108
ssg72
I409
sg73
(dp109
I404
S"        self.flash = ''            # used by the default view layout"
p110
sI405
S'        self.meta = Storage()      # used by web2py_ajax.html'
p111
sI406
S'        self.menu = []             # used by the default view layout'
p112
sI407
S'        self.files = []            # used by web2py_ajax.html'
p113
sI408
S'        self._vars = None'
p114
sI409
S'        self._caller = lambda f: f()'
p115
sI410
S'        self._view_environment = None'
p116
sI411
S'        self._custom_commit = None'
p117
sI412
S'        self._custom_rollback = None'
p118
sI413
S"        self.generic_patterns = ['*']"
p119
ssg85
S'(f=<function novo_estoque>)'
p120
sg87
S'<lambda>'
p121
sa(dp122
g64
S'C:\\Users\\Gabriel\\Documents\\Backend\\RAFA\\web2py\\applications\\RAFA\\controllers\\default.py'
p123
sg66
(dp124
S'form.process'
p125
S'<bound method SQLFORM.process of <gluon.sqlhtml.SQLFORM object>>'
p126
sS').accepted'
p127
g107
sS'form'
p128
S'<gluon.sqlhtml.SQLFORM object>'
p129
ssg72
I142
sg73
(dp130
I137
S"            response.flash = 'Preencha o formul\xc3\xa1rio!'"
p131
sI138
S'    return dict(form=form)'
p132
sI139
S''
sI140
S'def novo_estoque():'
p133
sI141
S'    form = SQLFORM(CarrosEstoque)'
p134
sI142
S'    if form.process().accepted:'
p135
sI143
S"        session.flash = 'Novo Carro cadastrado no estoque: %s' % form.vars.carro"
p136
sI144
S"        redirect(URL('novo_estoque'))"
p137
sI145
S''
sI146
S'    elif form.errors:'
p138
ssg85
S'()'
p139
sg87
S'novo_estoque'
p140
sa(dp141
g64
S'C:\\Users\\Gabriel\\Documents\\Backend\\RAFA\\web2py\\gluon\\html.py'
p142
sg66
(dp143
S'self'
p144
S'<gluon.sqlhtml.SQLFORM object>'
p145
sS'self.validate'
p146
S'<bound method SQLFORM.validate of <gluon.sqlhtml.SQLFORM object>>'
p147
sS'kwargs'
p148
S"{'dbio': True}"
p149
ssg72
I2300
sg73
(dp150
I2304
S''
sI2295
S'                return dict(form=SQLFORM(db.table).process(onsuccess=my_callback)'
p151
sI2296
S''
sI2297
S''
sI2298
S'        """'
p152
sI2299
S"        kwargs['dbio'] = kwargs.get('dbio', True)  # necessary for SQLHTML forms"
p153
sI2300
S'        self.validate(**kwargs)'
p154
sI2301
S'        return self'
p155
sI2302
S''
sI2303
S'    REDIRECT_JS = "window.location=\'%s\';return false"'
p156
ssg85
S"(self=<gluon.sqlhtml.SQLFORM object>, **kwargs={'dbio': True})"
p157
sg87
S'process'
p158
sa(dp159
g64
S'C:\\Users\\Gabriel\\Documents\\Backend\\RAFA\\web2py\\gluon\\html.py'
p160
sg66
(dp161
S'self'
p162
S'<gluon.sqlhtml.SQLFORM object>'
p163
sS'self.accepts'
p164
S'<bound method SQLFORM.accepts of <gluon.sqlhtml.SQLFORM object>>'
p165
sS'kwargs'
p166
S"{'dbio': True, 'request_vars': <Storage {'_formkey': 'a20d84e3-c8fa-4fb7-b2e7-8...': 'carros_estoque/create', 'carro': 'AAA-2017'}>, 'session': <Storage {'last_query': 'db.auth_cas.id>0', '_fo...b68ee', '90f6918e-8152-4901-be76-b2eacd20cc3a']}>}"
p167
ssg72
I2238
sg73
(dp168
I2240
S'                if next:'
p169
sI2241
S'                    current.session.flash = message_onsuccess'
p170
sI2242
S'                else:'
p171
sI2233
S"        for key in ('message_onsuccess', 'message_onfailure', 'onsuccess',"
p172
sI2234
S"                    'onfailure', 'next', 'message_onchange', 'onchange'):"
p173
sI2235
S'            if key in kwargs:'
p174
sI2236
S'                del kwargs[key]'
p175
sI2237
S''
sI2238
S'        if self.accepts(**kwargs):'
p176
sI2239
S"            if onsuccess == 'flash':"
p177
ssg85
S"(self=<gluon.sqlhtml.SQLFORM object>, **kwargs={'dbio': True, 'request_vars': <Storage {'_formkey': 'a20d84e3-c8fa-4fb7-b2e7-8...': 'carros_estoque/create', 'carro': 'AAA-2017'}>, 'session': <Storage {'last_query': 'db.auth_cas.id>0', '_fo...b68ee', '90f6918e-8152-4901-be76-b2eacd20cc3a']}>})"
p178
sg87
S'validate'
p179
sa(dp180
g64
S'C:\\Users\\Gabriel\\Documents\\Backend\\RAFA\\web2py\\gluon\\sqlhtml.py'
p181
sg66
(dp182
S'kwargs'
p183
g19
ssg72
I1643
sg73
(dp184
I1638
S'            session,'
p185
sI1639
S'            formname,'
p186
sI1640
S'            keepvalues,'
p187
sI1641
S'            onvalidation,'
p188
sI1642
S'            hideerror=hideerror,'
p189
sI1643
S'            **kwargs'
p190
sI1644
S'        )'
p191
sI1645
S''
sI1646
S'        self.deleted = request_vars.get(self.FIELDNAME_REQUEST_DELETE, False)'
p192
sI1647
S''
ssg85
S"(self=<gluon.sqlhtml.SQLFORM object>, request_vars=<Storage {'_formkey': 'a20d84e3-c8fa-4fb7-b2e7-8...': 'carros_estoque/create', 'carro': 'AAA-2017'}>, session=<Storage {'last_query': 'db.auth_cas.id>0', '_fo...b68ee', '90f6918e-8152-4901-be76-b2eacd20cc3a']}>, formname='carros_estoque/create', keepvalues=False, onvalidation=None, dbio=True, hideerror=False, detect_record_change=False, **kwargs={})"
p193
sg87
S'accepts'
p194
sa(dp195
g64
S'C:\\Users\\Gabriel\\Documents\\Backend\\RAFA\\web2py\\gluon\\html.py'
p196
sg66
(dp197
S'status'
p198
S'True'
p199
sS'self'
p200
S'<gluon.sqlhtml.SQLFORM object>'
p201
sS'self._traverse'
p202
S'<bound method SQLFORM._traverse of <gluon.sqlhtml.SQLFORM object>>'
p203
sS'hideerror'
p204
S'False'
p205
ssg72
I2123
sg73
(dp206
I2118
S'        if status and session:'
p207
sI2119
S'            # check if editing a record that has been modified by the server'
p208
sI2120
S"            if hasattr(self, 'record_hash') and self.record_hash != formkey.split(':')[0]:"
p209
sI2121
S'                status = False'
p210
sI2122
S'                self.record_changed = changed = True'
p211
sI2123
S'        status = self._traverse(status, hideerror)'
p212
sI2124
S'        status = self.assert_status(status, request_vars)'
p213
sI2125
S'        if onvalidation:'
p214
sI2126
S'            if isinstance(onvalidation, dict):'
p215
sI2127
S"                onsuccess = onvalidation.get('onsuccess', None)"
p216
ssg85
S"(self=<gluon.sqlhtml.SQLFORM object>, request_vars=<Storage {'_formkey': 'a20d84e3-c8fa-4fb7-b2e7-8...': 'carros_estoque/create', 'carro': 'AAA-2017'}>, session=<Storage {'last_query': 'db.auth_cas.id>0', '_fo...b68ee', '90f6918e-8152-4901-be76-b2eacd20cc3a']}>, formname='carros_estoque/create', keepvalues=False, onvalidation=None, hideerror=False, **kwargs={})"
p217
sg87
g194
sa(dp218
g64
S'C:\\Users\\Gabriel\\Documents\\Backend\\RAFA\\web2py\\gluon\\html.py'
p219
sg66
(dp220
S'status'
p221
g199
sS'newstatus'
p222
g199
sS'c'
S'<gluon.html.CAT object>'
p223
sS'hideerror'
p224
g205
sS'c._traverse'
p225
S'<bound method CAT._traverse of <gluon.html.CAT object>>'
p226
ssg72
I886
sg73
(dp227
I881
S'                c.latest = self.latest'
p228
sI882
S'                c.session = self.session'
p229
sI883
S'                c.formname = self.formname'
p230
sI884
S"                if not c.attributes.get('hideerror'):"
p231
sI885
S"                    c['hideerror'] = hideerror or self.attributes.get('hideerror')"
p232
sI886
S'                newstatus = c._traverse(status, hideerror) and newstatus'
p233
sI887
S''
sI888
S'        # for input, textarea, select, option'
p234
sI889
S"        # deal with 'value' and 'validation'"
p235
sI890
S''
ssg85
S'(self=<gluon.sqlhtml.SQLFORM object>, status=True, hideerror=False)'
p236
sg87
S'_traverse'
p237
sa(dp238
g64
S'C:\\Users\\Gabriel\\Documents\\Backend\\RAFA\\web2py\\gluon\\html.py'
p239
sg66
(dp240
S'status'
p241
g199
sS'newstatus'
p242
g199
sS'c'
S'<gluon.html.DIV object>'
p243
sS'hideerror'
p244
g205
sS'c._traverse'
p245
S'<bound method DIV._traverse of <gluon.html.DIV object>>'
p246
ssg72
I886
sg73
(dp247
I881
S'                c.latest = self.latest'
p248
sI882
S'                c.session = self.session'
p249
sI883
S'                c.formname = self.formname'
p250
sI884
S"                if not c.attributes.get('hideerror'):"
p251
sI885
S"                    c['hideerror'] = hideerror or self.attributes.get('hideerror')"
p252
sI886
S'                newstatus = c._traverse(status, hideerror) and newstatus'
p253
sI887
S''
sI888
S'        # for input, textarea, select, option'
p254
sI889
S"        # deal with 'value' and 'validation'"
p255
sI890
S''
ssg85
S'(self=<gluon.html.CAT object>, status=True, hideerror=False)'
p256
sg87
g237
sa(dp257
g64
S'C:\\Users\\Gabriel\\Documents\\Backend\\RAFA\\web2py\\gluon\\html.py'
p258
sg66
(dp259
S'status'
p260
g199
sS'newstatus'
p261
g199
sS'c'
S'<gluon.html.DIV object>'
p262
sS'hideerror'
p263
g205
sS'c._traverse'
p264
S'<bound method DIV._traverse of <gluon.html.DIV object>>'
p265
ssg72
I886
sg73
(dp266
I881
S'                c.latest = self.latest'
p267
sI882
S'                c.session = self.session'
p268
sI883
S'                c.formname = self.formname'
p269
sI884
S"                if not c.attributes.get('hideerror'):"
p270
sI885
S"                    c['hideerror'] = hideerror or self.attributes.get('hideerror')"
p271
sI886
S'                newstatus = c._traverse(status, hideerror) and newstatus'
p272
sI887
S''
sI888
S'        # for input, textarea, select, option'
p273
sI889
S"        # deal with 'value' and 'validation'"
p274
sI890
S''
ssg85
S'(self=<gluon.html.DIV object>, status=True, hideerror=False)'
p275
sg87
g237
sa(dp276
g64
S'C:\\Users\\Gabriel\\Documents\\Backend\\RAFA\\web2py\\gluon\\html.py'
p277
sg66
(dp278
S'status'
p279
g199
sS'newstatus'
p280
g199
sS'c'
S'<gluon.html.INPUT object>'
p281
sS'hideerror'
p282
g205
sS'c._traverse'
p283
S'<bound method INPUT._traverse of <gluon.html.INPUT object>>'
p284
ssg72
I886
sg73
(dp285
I881
S'                c.latest = self.latest'
p286
sI882
S'                c.session = self.session'
p287
sI883
S'                c.formname = self.formname'
p288
sI884
S"                if not c.attributes.get('hideerror'):"
p289
sI885
S"                    c['hideerror'] = hideerror or self.attributes.get('hideerror')"
p290
sI886
S'                newstatus = c._traverse(status, hideerror) and newstatus'
p291
sI887
S''
sI888
S'        # for input, textarea, select, option'
p292
sI889
S"        # deal with 'value' and 'validation'"
p293
sI890
S''
ssg85
S'(self=<gluon.html.DIV object>, status=True, hideerror=False)'
p294
sg87
g237
sa(dp295
g64
S'C:\\Users\\Gabriel\\Documents\\Backend\\RAFA\\web2py\\gluon\\html.py'
p296
sg66
(dp297
S'newstatus'
p298
g199
sS'self'
p299
S'<gluon.html.INPUT object>'
p300
sS'self._validate'
p301
S'<bound method INPUT._validate of <gluon.html.INPUT object>>'
p302
ssg72
I893
sg73
(dp303
I896
S"            self['value'] = self['old_value']"
p304
sI897
S'            self._postprocessing()'
p305
sI888
S'        # for input, textarea, select, option'
p306
sI889
S"        # deal with 'value' and 'validation'"
p307
sI890
S''
sI891
S"        name = self['_name']"
p308
sI892
S'        if newstatus:'
p309
sI893
S'            newstatus = self._validate()'
p310
sI894
S'            self._postprocessing()'
p311
sI895
S"        elif 'old_value' in self.attributes:"
p312
ssg85
S'(self=<gluon.html.INPUT object>, status=True, hideerror=False)'
p313
sg87
g237
sa(dp314
g64
S'C:\\Users\\Gabriel\\Documents\\Backend\\RAFA\\web2py\\gluon\\html.py'
p315
sg66
(dp316
S'builtinException'
p317
S"<type 'exceptions.Exception'>"
p318
sS'msg'
p319
S"'Validation error, field:carro <gluon.validators.IS_NOT_IN_DB object at 0x09866FD0>'"
p320
ssg72
I1869
sg73
(dp321
I1864
S'                    (value, errors) = validator(value)'
p322
sI1865
S'                except:'
p323
sI1866
S'                    import traceback'
p324
sI1867
S'                    print(traceback.format_exc())'
p325
sI1868
S'                    msg = "Validation error, field:%s %s" % (name, validator)'
p326
sI1869
S'                    raise Exception(msg)'
p327
sI1870
S'                if errors is not None:'
p328
sI1871
S'                    self.vars[name] = value'
p329
sI1872
S'                    self.errors[name] = errors'
p330
sI1873
S'                    break'
p331
ssg85
S'(self=<gluon.html.INPUT object>)'
p332
sg87
S'_validate'
p333
sasS'pyver'
p334
S'Python 2.7.9: C:\\Users\\Gabriel\\Documents\\Backend\\RAFA\\web2py\\web2py.exe (prefix: )'
p335
sS'session'
p336
g59
(S's\x82\t\x00\x00<div><table><tr><td style="font-weight:bold;vertical-align:top;">auth</td><td style="vertical-align:top;">:</td><td><div><table><tr><td style="font-weight:bold;vertical-align:top;">expiration</td><td style="vertical-align:top;">:</td><td><div>3600</div></td></tr><tr><td style="font-weight:bold;vertical-align:top;">hmac_key</td><td style="vertical-align:top;">:</td><td><div>9e2e9de9-246a-44ec-a162-94cab98eb9f3</div></td></tr><tr><td style="font-weight:bold;vertical-align:top;">last_visit</td><td style="vertical-align:top;">:</td><td><div>datetime.datetime(2017, 11, 5, 17, 7, 39, 780000)</div></td></tr><tr><td style="font-weight:bold;vertical-align:top;">user</td><td style="vertical-align:top;">:</td><td><div><table><tr><td style="font-weight:bold;vertical-align:top;">email</td><td style="vertical-align:top;">:</td><td><div>gabriel@email.com</div></td></tr><tr><td style="font-weight:bold;vertical-align:top;">first_name</td><td style="vertical-align:top;">:</td><td><div>Gabriel</div></td></tr><tr><td style="font-weight:bold;vertical-align:top;">id</td><td style="vertical-align:top;">:</td><td><div>11L</div></td></tr><tr><td style="font-weight:bold;vertical-align:top;">last_name</td><td style="vertical-align:top;">:</td><td><div>Matos</div></td></tr><tr><td style="font-weight:bold;vertical-align:top;">registration_id</td><td style="vertical-align:top;">:</td><td><div></div></td></tr><tr><td style="font-weight:bold;vertical-align:top;">registration_key</td><td style="vertical-align:top;">:</td><td><div></div></td></tr><tr><td style="font-weight:bold;vertical-align:top;">reset_password_key</td><td style="vertical-align:top;">:</td><td><div></div></td></tr></table></div></td></tr><tr><td style="font-weight:bold;vertical-align:top;">user_groups</td><td style="vertical-align:top;">:</td><td><div><table><tr><td style="font-weight:bold;vertical-align:top;">12</td><td style="vertical-align:top;">:</td><td><div>user_11</div></td></tr></table></div></td></tr></table></div></td></tr><tr><td style="font-weight:bold;vertical-align:top;">flash</td><td style="vertical-align:top;">:</td><td><div>None</div></td></tr><tr><td style="font-weight:bold;vertical-align:top;">last_orderby</td><td style="vertical-align:top;">:</td><td><div>None</div></td></tr><tr><td style="font-weight:bold;vertical-align:top;">last_query</td><td style="vertical-align:top;">:</td><td><div>db.auth_cas.id&gt;0</div></td></tr></table></div>'
tRp337
sS'etype'
p338
S"<type 'exceptions.Exception'>"
p339
sS'date'
p340
S'Sun Nov 05 17:08:00 2017'
p341
sS'response'
p342
g59
(S's\xcc\'\x00\x00<div><table><tr><td style="font-weight:bold;vertical-align:top;">body</td><td style="vertical-align:top;">:</td><td><div>&lt;cStringIO.StringO object at 0x09835780&gt;</div></td></tr><tr><td style="font-weight:bold;vertical-align:top;">cookies</td><td style="vertical-align:top;">:</td><td><div><table><tr><td style="font-weight:bold;vertical-align:top;">session_id_rafa</td><td style="vertical-align:top;">:</td><td><div>127.0.0.1-5144cc2a-efcc-4eac-8179-6a44db2eb1ab<table><tr><td style="font-weight:bold;vertical-align:top;">comment</td><td style="vertical-align:top;">:</td><td><div></div></td></tr><tr><td style="font-weight:bold;vertical-align:top;">domain</td><td style="vertical-align:top;">:</td><td><div></div></td></tr><tr><td style="font-weight:bold;vertical-align:top;">expires</td><td style="vertical-align:top;">:</td><td><div></div></td></tr><tr><td style="font-weight:bold;vertical-align:top;">httponly</td><td style="vertical-align:top;">:</td><td><div></div></td></tr><tr><td style="font-weight:bold;vertical-align:top;">max-age</td><td style="vertical-align:top;">:</td><td><div></div></td></tr><tr><td style="font-weight:bold;vertical-align:top;">path</td><td style="vertical-align:top;">:</td><td><div>/</div></td></tr><tr><td style="font-weight:bold;vertical-align:top;">secure</td><td style="vertical-align:top;">:</td><td><div></div></td></tr><tr><td style="font-weight:bold;vertical-align:top;">version</td><td style="vertical-align:top;">:</td><td><div></div></td></tr></table></div></td></tr></table></div></td></tr><tr><td style="font-weight:bold;vertical-align:top;">delimiters</td><td style="vertical-align:top;">:</td><td><div><table><tr><td><div>{{</div></td></tr><tr><td><div>}}</div></td></tr></table></div></td></tr><tr><td style="font-weight:bold;vertical-align:top;">files</td><td style="vertical-align:top;">:</td><td><div><table></table></div></td></tr><tr><td style="font-weight:bold;vertical-align:top;">flash</td><td style="vertical-align:top;">:</td><td><div></div></td></tr><tr><td style="font-weight:bold;vertical-align:top;">form_label_separator</td><td style="vertical-align:top;">:</td><td><div></div></td></tr><tr><td style="font-weight:bold;vertical-align:top;">formstyle</td><td style="vertical-align:top;">:</td><td><div>bootstrap3_inline</div></td></tr><tr><td style="font-weight:bold;vertical-align:top;">generic_patterns</td><td style="vertical-align:top;">:</td><td><div><table><tr><td><div>*</div></td></tr></table></div></td></tr><tr><td style="font-weight:bold;vertical-align:top;">headers</td><td style="vertical-align:top;">:</td><td><div><table><tr><td style="font-weight:bold;vertical-align:top;">X-Powered-By</td><td style="vertical-align:top;">:</td><td><div>web2py</div></td></tr></table></div></td></tr><tr><td style="font-weight:bold;vertical-align:top;">logo</td><td style="vertical-align:top;">:</td><td><div><a class="navbar-brand" href="index.html" id="web2py-logo"><b><span>RAFA </span>autom\xc3\xb3veis</b></a></div></td></tr><tr><td style="font-weight:bold;vertical-align:top;">menu</td><td style="vertical-align:top;">:</td><td><div><table><tr><td><div><table><tr><td><div>Cadastros</div></td></tr><tr><td><div>False</div></td></tr><tr><td><div>#</div></td></tr><tr><td><div><table><tr><td><div><table><tr><td><div>Cadastrar novo carro</div></td></tr><tr><td><div>False</div></td></tr><tr><td><div>/RAFA/default/novo_carro</div></td></tr><tr><td><div>[]</div></td></tr></table></div></td></tr><tr><td><div><table><tr><td><div>Cadastrar novo cliente</div></td></tr><tr><td><div>False</div></td></tr><tr><td><div>/RAFA/default/novo_cliente</div></td></tr><tr><td><div>[]</div></td></tr></table></div></td></tr><tr><td><div><table><tr><td><div>Cadastrar carro no estoque</div></td></tr><tr><td><div>False</div></td></tr><tr><td><div>/RAFA/default/novo_estoque</div></td></tr><tr><td><div>[]</div></td></tr></table></div></td></tr><tr><td><div><table><tr><td><div>Cadastrar nova venda</div></td></tr><tr><td><div>False</div></td></tr><tr><td><div>/RAFA/default/nova_venda</div></td></tr><tr><td><div>[]</div></td></tr></table></div></td></tr><tr><td><div><table><tr><td><div>Cadastrar nova consigna\xc3\xa7\xc3\xa3o</div></td></tr><tr><td><div>False</div></td></tr><tr><td><div>/RAFA/default/novo_consignado</div></td></tr><tr><td><div>[]</div></td></tr></table></div></td></tr><tr><td><div><table><tr><td><div>Cadastrar despesas</div></td></tr><tr><td><div>False</div></td></tr><tr><td><div>/RAFA/default/nova_despesa</div></td></tr><tr><td><div>[]</div></td></tr></table></div></td></tr></table></div></td></tr></table></div></td></tr><tr><td><div><table><tr><td><div>Carros</div></td></tr><tr><td><div>False</div></td></tr><tr><td><div>#</div></td></tr><tr><td><div><table><tr><td><div><table><tr><td><div>Todos os carros</div></td></tr><tr><td><div>False</div></td></tr><tr><td><div>/RAFA/default/ver_carros</div></td></tr><tr><td><div>[]</div></td></tr></table></div></td></tr><tr><td><div><li class="divider"></li></div></td></tr><tr><td><div><table><tr><td><div>Estoque</div></td></tr><tr><td><div>False</div></td></tr><tr><td><div>/RAFA/default/ver_estoque</div></td></tr><tr><td><div>[]</div></td></tr></table></div></td></tr><tr><td><div><table><tr><td><div>consignados</div></td></tr><tr><td><div>False</div></td></tr><tr><td><div>/RAFA/default/ver_consig</div></td></tr><tr><td><div>[]</div></td></tr></table></div></td></tr><tr><td><div><table><tr><td><div>Vendidos</div></td></tr><tr><td><div>False</div></td></tr><tr><td><div>/RAFA/default/ver_vendas</div></td></tr><tr><td><div>[]</div></td></tr></table></div></td></tr></table></div></td></tr></table></div></td></tr><tr><td><div><table><tr><td><div>Despesas</div></td></tr><tr><td><div>False</div></td></tr><tr><td><div>/RAFA/default/ver_despesas</div></td></tr><tr><td><div><table></table></div></td></tr></table></div></td></tr><tr><td><div><table><tr><td><div>cliente</div></td></tr><tr><td><div>False</div></td></tr><tr><td><div>/RAFA/default/ver_clientes</div></td></tr><tr><td><div><table></table></div></td></tr></table></div></td></tr></table></div></td></tr><tr><td style="font-weight:bold;vertical-align:top;">meta</td><td style="vertical-align:top;">:</td><td><div><table><tr><td style="font-weight:bold;vertical-align:top;">author</td><td style="vertical-align:top;">:</td><td><div>Your Name &lt;you@example.com&gt;</div></td></tr><tr><td style="font-weight:bold;vertical-align:top;">description</td><td style="vertical-align:top;">:</td><td><div>a cool new app</div></td></tr><tr><td style="font-weight:bold;vertical-align:top;">generator</td><td style="vertical-align:top;">:</td><td><div>Web2py Web Framework</div></td></tr><tr><td style="font-weight:bold;vertical-align:top;">keywords</td><td style="vertical-align:top;">:</td><td><div><table><tr><td><div>web2py</div></td></tr><tr><td><div>python</div></td></tr><tr><td><div>framework</div></td></tr></table></div></td></tr></table></div></td></tr><tr><td style="font-weight:bold;vertical-align:top;">models_to_run</td><td style="vertical-align:top;">:</td><td><div><table><tr><td><div>^\\w+\\.py$</div></td></tr><tr><td><div>^default/\\w+\\.py$</div></td></tr><tr><td><div>^default/novo_estoque/\\w+\\.py$</div></td></tr></table></div></td></tr><tr><td style="font-weight:bold;vertical-align:top;">postprocessing</td><td style="vertical-align:top;">:</td><td><div><table></table></div></td></tr><tr><td style="font-weight:bold;vertical-align:top;">session_client</td><td style="vertical-align:top;">:</td><td><div>127.0.0.1</div></td></tr><tr><td style="font-weight:bold;vertical-align:top;">session_cookie_compression_level</td><td style="vertical-align:top;">:</td><td><div>None</div></td></tr><tr><td style="font-weight:bold;vertical-align:top;">session_cookie_expires</td><td style="vertical-align:top;">:</td><td><div>None</div></td></tr><tr><td style="font-weight:bold;vertical-align:top;">session_data_name</td><td style="vertical-align:top;">:</td><td><div>session_data_rafa</div></td></tr><tr><td style="font-weight:bold;vertical-align:top;">session_file</td><td style="vertical-align:top;">:</td><td><div>&lt;open file &#x27;C:\\\\Users\\\\Gabriel\\\\Documents\\\\Backend\\\\RAFA\\\\web2py\\\\applications\\\\RAFA\\\\sessions\\\\026\\\\0bf\\\\127.0.0.1-5144cc2a-efcc-4eac-8179-6a44db2eb1ab&#x27;, mode &#x27;rb+&#x27; at 0x09568AC8&gt;</div></td></tr><tr><td style="font-weight:bold;vertical-align:top;">session_filename</td><td style="vertical-align:top;">:</td><td><div>C:\\Users\\Gabriel\\Documents\\Backend\\RAFA\\web2py\\applications\\RAFA\\sessions\\127.0.0.1-5144cc2a-efcc-4eac-8179-6a44db2eb1ab</div></td></tr><tr><td style="font-weight:bold;vertical-align:top;">session_hash</td><td style="vertical-align:top;">:</td><td><div>951842f758f2f55d9a55865a70723411</div></td></tr><tr><td style="font-weight:bold;vertical-align:top;">session_id</td><td style="vertical-align:top;">:</td><td><div>127.0.0.1-5144cc2a-efcc-4eac-8179-6a44db2eb1ab</div></td></tr><tr><td style="font-weight:bold;vertical-align:top;">session_id_name</td><td style="vertical-align:top;">:</td><td><div>session_id_rafa</div></td></tr><tr><td style="font-weight:bold;vertical-align:top;">session_locked</td><td style="vertical-align:top;">:</td><td><div>True</div></td></tr><tr><td style="font-weight:bold;vertical-align:top;">session_masterapp</td><td style="vertical-align:top;">:</td><td><div>RAFA</div></td></tr><tr><td style="font-weight:bold;vertical-align:top;">session_new</td><td style="vertical-align:top;">:</td><td><div>False</div></td></tr><tr><td style="font-weight:bold;vertical-align:top;">session_storage_type</td><td style="vertical-align:top;">:</td><td><div>file</div></td></tr><tr><td style="font-weight:bold;vertical-align:top;">status</td><td style="vertical-align:top;">:</td><td><div>200</div></td></tr><tr><td style="font-weight:bold;vertical-align:top;">subtitle</td><td style="vertical-align:top;">:</td><td><div></div></td></tr><tr><td style="font-weight:bold;vertical-align:top;">title</td><td style="vertical-align:top;">:</td><td><div>Rafa</div></td></tr><tr><td style="font-weight:bold;vertical-align:top;">view</td><td style="vertical-align:top;">:</td><td><div>default/novo_estoque.html</div></td></tr></table></div>'
tRp343
sS'locals'
p344
(dp345
S'errors'
p346
S'None'
p347
sS'name'
p348
S"'carro'"
p349
sS'k'
S'1'
sS'traceback'
p350
S"<module 'traceback' from 'C:\\Users\\Gabriel\\Documents\\Backend\\RAFA\\web2py\\library.zip\\traceback.pyc'>"
p351
sS'value'
p352
S"'AAA-2017'"
p353
sS'validator'
p354
S'<gluon.validators.IS_NOT_IN_DB object>'
p355
sS'msg'
p356
S"'Validation error, field:carro <gluon.validators.IS_NOT_IN_DB object at 0x09866FD0>'"
p357
sS'request_vars_get'
p358
S'<built-in method get of Storage object>'
p359
sS'requires'
p360
S'[<gluon.validators.IS_IN_DB object>, <gluon.validators.IS_NOT_IN_DB object>]'
p361
sS'self'
p362
S'<gluon.html.INPUT object>'
p363
sssg350
S'Traceback (most recent call last):\n  File "C:\\Users\\Gabriel\\Documents\\Backend\\RAFA\\web2py\\gluon\\restricted.py", line 219, in restricted\n    exec(ccode, environment)\n  File "C:\\Users\\Gabriel\\Documents\\Backend\\RAFA\\web2py\\applications\\RAFA\\controllers/default.py", line 192, in <module>\n  File "C:\\Users\\Gabriel\\Documents\\Backend\\RAFA\\web2py\\gluon\\globals.py", line 409, in <lambda>\n    self._caller = lambda f: f()\n  File "C:\\Users\\Gabriel\\Documents\\Backend\\RAFA\\web2py\\applications\\RAFA\\controllers/default.py", line 142, in novo_estoque\n    if form.process().accepted:\n  File "C:\\Users\\Gabriel\\Documents\\Backend\\RAFA\\web2py\\gluon\\html.py", line 2300, in process\n    self.validate(**kwargs)\n  File "C:\\Users\\Gabriel\\Documents\\Backend\\RAFA\\web2py\\gluon\\html.py", line 2238, in validate\n    if self.accepts(**kwargs):\n  File "C:\\Users\\Gabriel\\Documents\\Backend\\RAFA\\web2py\\gluon\\sqlhtml.py", line 1643, in accepts\n    **kwargs\n  File "C:\\Users\\Gabriel\\Documents\\Backend\\RAFA\\web2py\\gluon\\html.py", line 2123, in accepts\n    status = self._traverse(status, hideerror)\n  File "C:\\Users\\Gabriel\\Documents\\Backend\\RAFA\\web2py\\gluon\\html.py", line 886, in _traverse\n    newstatus = c._traverse(status, hideerror) and newstatus\n  File "C:\\Users\\Gabriel\\Documents\\Backend\\RAFA\\web2py\\gluon\\html.py", line 886, in _traverse\n    newstatus = c._traverse(status, hideerror) and newstatus\n  File "C:\\Users\\Gabriel\\Documents\\Backend\\RAFA\\web2py\\gluon\\html.py", line 886, in _traverse\n    newstatus = c._traverse(status, hideerror) and newstatus\n  File "C:\\Users\\Gabriel\\Documents\\Backend\\RAFA\\web2py\\gluon\\html.py", line 886, in _traverse\n    newstatus = c._traverse(status, hideerror) and newstatus\n  File "C:\\Users\\Gabriel\\Documents\\Backend\\RAFA\\web2py\\gluon\\html.py", line 893, in _traverse\n    newstatus = self._validate()\n  File "C:\\Users\\Gabriel\\Documents\\Backend\\RAFA\\web2py\\gluon\\html.py", line 1869, in _validate\n    raise Exception(msg)\nException: Validation error, field:carro <gluon.validators.IS_NOT_IN_DB object at 0x09866FD0>\n'
p364
s.