(dp1
S'output'
p2
S"<type 'exceptions.TypeError'> 'list' object is not callable"
p3
sS'layer'
p4
S'C:\\Users\\Gabriel\\Documents\\Backend\\RAFA\\web2py\\applications\\RAFA\\controllers/default.py'
p5
sS'code'
p6
S'<code object <module> at 0985B140, file "C:\\Users\\Gabriel\\Documents\\Backend\\RAFA\\web2py\\applications\\RAFA\\controllers/default.py", line 12>'
p7
sS'snapshot'
p8
(dp9
S'exception'
p10
(dp11
S'__getslice__'
p12
S"<method-wrapper '__getslice__' of exceptions.TypeError object>"
p13
sS'__str__'
p14
S"<method-wrapper '__str__' of exceptions.TypeError object>"
p15
sS'__reduce__'
p16
S'<built-in method __reduce__ of exceptions.TypeError object>'
p17
sS'__dict__'
p18
S'{}'
p19
sS'message'
p20
S'"\'list\' object is not callable"'
p21
sS'__sizeof__'
p22
S'<built-in method __sizeof__ of exceptions.TypeError object>'
p23
sS'__init__'
p24
S"<method-wrapper '__init__' of exceptions.TypeError object>"
p25
sS'__setattr__'
p26
S"<method-wrapper '__setattr__' of exceptions.TypeError object>"
p27
sS'__reduce_ex__'
p28
S'<built-in method __reduce_ex__ of exceptions.TypeError object>'
p29
sS'__new__'
p30
S'<built-in method __new__ of type object>'
p31
sS'__format__'
p32
S'<built-in method __format__ of exceptions.TypeError object>'
p33
sS'__class__'
p34
S"<type 'exceptions.TypeError'>"
p35
sS'__doc__'
p36
S"'Inappropriate argument type.'"
p37
sS'__getitem__'
p38
S"<method-wrapper '__getitem__' of exceptions.TypeError object>"
p39
sS'__setstate__'
p40
S'<built-in method __setstate__ of exceptions.TypeError object>'
p41
sS'__getattribute__'
p42
S"<method-wrapper '__getattribute__' of exceptions.TypeError object>"
p43
sS'args'
p44
S'("\'list\' object is not callable",)'
p45
sS'__subclasshook__'
p46
S'<built-in method __subclasshook__ of type object>'
p47
sS'__unicode__'
p48
S'<built-in method __unicode__ of exceptions.TypeError object>'
p49
sS'__delattr__'
p50
S"<method-wrapper '__delattr__' of exceptions.TypeError object>"
p51
sS'__repr__'
p52
S"<method-wrapper '__repr__' of exceptions.TypeError object>"
p53
sS'__hash__'
p54
S"<method-wrapper '__hash__' of exceptions.TypeError object>"
p55
ssS'evalue'
p56
S"'list' object is not callable"
p57
sS'request'
p58
cgluon.html
XML_unpickle
p59
(S's\x9cX\x00\x00<div><table><tr><td style="font-weight:bold;vertical-align:top;">ajax</td><td style="vertical-align:top;">:</td><td><div>False</div></td></tr><tr><td style="font-weight:bold;vertical-align:top;">application</td><td style="vertical-align:top;">:</td><td><div>RAFA</div></td></tr><tr><td style="font-weight:bold;vertical-align:top;">args</td><td style="vertical-align:top;">:</td><td><div><table></table></div></td></tr><tr><td style="font-weight:bold;vertical-align:top;">cid</td><td style="vertical-align:top;">:</td><td><div>None</div></td></tr><tr><td style="font-weight:bold;vertical-align:top;">client</td><td style="vertical-align:top;">:</td><td><div>127.0.0.1</div></td></tr><tr><td style="font-weight:bold;vertical-align:top;">controller</td><td style="vertical-align:top;">:</td><td><div>default</div></td></tr><tr><td style="font-weight:bold;vertical-align:top;">cookies</td><td style="vertical-align:top;">:</td><td><div><table><tr><td style="font-weight:bold;vertical-align:top;">session_id_admin</td><td style="vertical-align:top;">:</td><td><div>127.0.0.1-85944afe-1c6b-4831-a93a-3b4a2f9b7c0c<table><tr><td style="font-weight:bold;vertical-align:top;">comment</td><td style="vertical-align:top;">:</td><td><div></div></td></tr><tr><td style="font-weight:bold;vertical-align:top;">domain</td><td style="vertical-align:top;">:</td><td><div></div></td></tr><tr><td style="font-weight:bold;vertical-align:top;">expires</td><td style="vertical-align:top;">:</td><td><div></div></td></tr><tr><td style="font-weight:bold;vertical-align:top;">httponly</td><td style="vertical-align:top;">:</td><td><div></div></td></tr><tr><td style="font-weight:bold;vertical-align:top;">max-age</td><td style="vertical-align:top;">:</td><td><div></div></td></tr><tr><td style="font-weight:bold;vertical-align:top;">path</td><td style="vertical-align:top;">:</td><td><div></div></td></tr><tr><td style="font-weight:bold;vertical-align:top;">secure</td><td style="vertical-align:top;">:</td><td><div></div></td></tr><tr><td style="font-weight:bold;vertical-align:top;">version</td><td style="vertical-align:top;">:</td><td><div></div></td></tr></table></div></td></tr><tr><td style="font-weight:bold;vertical-align:top;">session_id_rafa</td><td style="vertical-align:top;">:</td><td><div>127.0.0.1-8f60086a-f164-42a3-93c3-3f61580d5529<table><tr><td style="font-weight:bold;vertical-align:top;">comment</td><td style="vertical-align:top;">:</td><td><div></div></td></tr><tr><td style="font-weight:bold;vertical-align:top;">domain</td><td style="vertical-align:top;">:</td><td><div></div></td></tr><tr><td style="font-weight:bold;vertical-align:top;">expires</td><td style="vertical-align:top;">:</td><td><div></div></td></tr><tr><td style="font-weight:bold;vertical-align:top;">httponly</td><td style="vertical-align:top;">:</td><td><div></div></td></tr><tr><td style="font-weight:bold;vertical-align:top;">max-age</td><td style="vertical-align:top;">:</td><td><div></div></td></tr><tr><td style="font-weight:bold;vertical-align:top;">path</td><td style="vertical-align:top;">:</td><td><div></div></td></tr><tr><td style="font-weight:bold;vertical-align:top;">secure</td><td style="vertical-align:top;">:</td><td><div></div></td></tr><tr><td style="font-weight:bold;vertical-align:top;">version</td><td style="vertical-align:top;">:</td><td><div></div></td></tr></table></div></td></tr></table></div></td></tr><tr><td style="font-weight:bold;vertical-align:top;">env</td><td style="vertical-align:top;">:</td><td><div><table><tr><td style="font-weight:bold;vertical-align:top;">HTTP_ACCEPT</td><td style="vertical-align:top;">:</td><td><div>text/html, application/xhtml+xml, image/jxr, */*</div></td></tr><tr><td style="font-weight:bold;vertical-align:top;">HTTP_ACCEPT_ENCODING</td><td style="vertical-align:top;">:</td><td><div>gzip, deflate</div></td></tr><tr><td style="font-weight:bold;vertical-align:top;">HTTP_ACCEPT_LANGUAGE</td><td style="vertical-align:top;">:</td><td><div>pt-BR,pt;q=0.5</div></td></tr><tr><td style="font-weight:bold;vertical-align:top;">HTTP_CONNECTION</td><td style="vertical-align:top;">:</td><td><div>Keep-Alive</div></td></tr><tr><td style="font-weight:bold;vertical-align:top;">HTTP_COOKIE</td><td style="vertical-align:top;">:</td><td><div>session_id_rafa=127.0.0.1-8f60086a-f164-42a3-93c3-3f61580d5529; session_id_admin=127.0.0.1-85944afe-1c6b-4831-a93a-3b4a2f9b7c0c</div></td></tr><tr><td style="font-weight:bold;vertical-align:top;">HTTP_HOST</td><td style="vertical-align:top;">:</td><td><div>127.0.0.1:8000</div></td></tr><tr><td style="font-weight:bold;vertical-align:top;">HTTP_REFERER</td><td style="vertical-align:top;">:</td><td><div>http://127.0.0.1:8000/RAFA/default/ver_carros</div></td></tr><tr><td style="font-weight:bold;vertical-align:top;">HTTP_USER_AGENT</td><td style="vertical-align:top;">:</td><td><div>Mozilla/5.0 (Windows NT 10.0; Win64; x64) AppleWebKit/537.36 (KHTML, like Gecko) Chrome/52.0.2743.116 Safari/537.36 Edge/15.15063</div></td></tr><tr><td style="font-weight:bold;vertical-align:top;">PATH_INFO</td><td style="vertical-align:top;">:</td><td><div>/RAFA/default/ver_estoque</div></td></tr><tr><td style="font-weight:bold;vertical-align:top;">QUERY_STRING</td><td style="vertical-align:top;">:</td><td><div></div></td></tr><tr><td style="font-weight:bold;vertical-align:top;">REMOTE_ADDR</td><td style="vertical-align:top;">:</td><td><div>127.0.0.1</div></td></tr><tr><td style="font-weight:bold;vertical-align:top;">REMOTE_PORT</td><td style="vertical-align:top;">:</td><td><div>51690</div></td></tr><tr><td style="font-weight:bold;vertical-align:top;">REQUEST_METHOD</td><td style="vertical-align:top;">:</td><td><div>GET</div></td></tr><tr><td style="font-weight:bold;vertical-align:top;">SCRIPT_NAME</td><td style="vertical-align:top;">:</td><td><div></div></td></tr><tr><td style="font-weight:bold;vertical-align:top;">SERVER_NAME</td><td style="vertical-align:top;">:</td><td><div>DESKTOP-L20575K</div></td></tr><tr><td style="font-weight:bold;vertical-align:top;">SERVER_PORT</td><td style="vertical-align:top;">:</td><td><div>8000</div></td></tr><tr><td style="font-weight:bold;vertical-align:top;">SERVER_PROTOCOL</td><td style="vertical-align:top;">:</td><td><div>HTTP/1.1</div></td></tr><tr><td style="font-weight:bold;vertical-align:top;">SERVER_SOFTWARE</td><td style="vertical-align:top;">:</td><td><div>Rocket 1.2.6</div></td></tr><tr><td style="font-weight:bold;vertical-align:top;">app_folders</td><td style="vertical-align:top;">:</td><td><div>set([&#x27;C:\\\\Users\\\\Gabriel\\\\Documents\\\\Backend\\\\RAFA\\\\web2py\\\\applications\\\\admin\\\\&#x27;, &#x27;C:\\\\Users\\\\Gabriel\\\\Documents\\\\Backend\\\\RAFA\\\\web2py\\\\applications\\\\RAFA\\\\&#x27;, &#x27;C:\\\\Users\\\\Gabriel\\\\Documents\\\\Backend\\\\RAFA\\\\web2py\\\\applications\\\\welcome\\\\&#x27;])</div></td></tr><tr><td style="font-weight:bold;vertical-align:top;">applications_parent</td><td style="vertical-align:top;">:</td><td><div>C:\\Users\\Gabriel\\Documents\\Backend\\RAFA\\web2py</div></td></tr><tr><td style="font-weight:bold;vertical-align:top;">cmd_args</td><td style="vertical-align:top;">:</td><td><div><table></table></div></td></tr><tr><td style="font-weight:bold;vertical-align:top;">cmd_options</td><td style="vertical-align:top;">:</td><td><div>&lt;Values at 0x33dd0d0: {&#x27;verbose&#x27;: False, &#x27;ip&#x27;: &#x27;127.0.0.1&#x27;, &#x27;debuglevel&#x27;: 30, &#x27;with_scheduler&#x27;: False, &#x27;shutdown_timeout&#x27;: 5, &#x27;taskbar&#x27;: False, &#x27;with_coverage&#x27;: False, &#x27;pid_filename&#x27;: &#x27;httpserver.pid&#x27;, &#x27;maxthreads&#x27;: None, &#x27;softcron&#x27;: False, &#x27;server_name&#x27;: &#x27;DESKTOP-L20575K&#x27;, &#x27;bpython&#x27;: False, &#x27;nogui&#x27;: False, &#x27;port&#x27;: 8000, &#x27;print_errors&#x27;: False, &#x27;extcron&#x27;: False, &#x27;runcron&#x27;: False, &#x27;run_system_tests&#x27;: False, &#x27;test&#x27;: None, &#x27;folder&#x27;: &#x27;C:\\\\Users\\\\Gabriel\\\\Documents\\\\Backend\\\\RAFA\\\\web2py&#x27;, &#x27;config&#x27;: &#x27;&#x27;, &#x27;minthreads&#x27;: None, &#x27;shell&#x27;: None, &#x27;run&#x27;: &#x27;&#x27;, &#x27;log_filename&#x27;: &#x27;httpserver.log&#x27;, &#x27;profiler_dir&#x27;: None, &#x27;args&#x27;: [&#x27;&#x27;], &#x27;socket_timeout&#x27;: 5, &#x27;ssl_ca_certificate&#x27;: None, &#x27;scheduler&#x27;: None, &#x27;interfaces&#x27;: None, &#x27;ssl_private_key&#x27;: &#x27;&#x27;, &#x27;gae&#x27;: None, &#x27;password&#x27;: &#x27;******&#x27;, &#x27;request_queue_size&#x27;: 5, &#x27;ssl_certificate&#x27;: &#x27;&#x27;, &#x27;cronjob&#x27;: False, &#x27;numthreads&#x27;: None, &#x27;quiet&#x27;: False, &#x27;import_models&#x27;: False, &#x27;timeout&#x27;: 10, &#x27;plain&#x27;: False, &#x27;nobanner&#x27;: False}&gt;</div></td></tr><tr><td style="font-weight:bold;vertical-align:top;">db_sessions</td><td style="vertical-align:top;">:</td><td><div>set([])</div></td></tr><tr><td style="font-weight:bold;vertical-align:top;">debugging</td><td style="vertical-align:top;">:</td><td><div>False</div></td></tr><tr><td style="font-weight:bold;vertical-align:top;">gluon_parent</td><td style="vertical-align:top;">:</td><td><div>C:\\Users\\Gabriel\\Documents\\Backend\\RAFA\\web2py</div></td></tr><tr><td style="font-weight:bold;vertical-align:top;">http_accept</td><td style="vertical-align:top;">:</td><td><div>text/html, application/xhtml+xml, image/jxr, */*</div></td></tr><tr><td style="font-weight:bold;vertical-align:top;">http_accept_encoding</td><td style="vertical-align:top;">:</td><td><div>gzip, deflate</div></td></tr><tr><td style="font-weight:bold;vertical-align:top;">http_accept_language</td><td style="vertical-align:top;">:</td><td><div>pt-BR,pt;q=0.5</div></td></tr><tr><td style="font-weight:bold;vertical-align:top;">http_connection</td><td style="vertical-align:top;">:</td><td><div>Keep-Alive</div></td></tr><tr><td style="font-weight:bold;vertical-align:top;">http_cookie</td><td style="vertical-align:top;">:</td><td><div>session_id_rafa=127.0.0.1-8f60086a-f164-42a3-93c3-3f61580d5529; session_id_admin=127.0.0.1-85944afe-1c6b-4831-a93a-3b4a2f9b7c0c</div></td></tr><tr><td style="font-weight:bold;vertical-align:top;">http_host</td><td style="vertical-align:top;">:</td><td><div>127.0.0.1:8000</div></td></tr><tr><td style="font-weight:bold;vertical-align:top;">http_referer</td><td style="vertical-align:top;">:</td><td><div>http://127.0.0.1:8000/RAFA/default/ver_carros</div></td></tr><tr><td style="font-weight:bold;vertical-align:top;">http_user_agent</td><td style="vertical-align:top;">:</td><td><div>Mozilla/5.0 (Windows NT 10.0; Win64; x64) AppleWebKit/537.36 (KHTML, like Gecko) Chrome/52.0.2743.116 Safari/537.36 Edge/15.15063</div></td></tr><tr><td style="font-weight:bold;vertical-align:top;">is_jython</td><td style="vertical-align:top;">:</td><td><div>False</div></td></tr><tr><td style="font-weight:bold;vertical-align:top;">is_py2</td><td style="vertical-align:top;">:</td><td><div>True</div></td></tr><tr><td style="font-weight:bold;vertical-align:top;">is_pypy</td><td style="vertical-align:top;">:</td><td><div>False</div></td></tr><tr><td style="font-weight:bold;vertical-align:top;">is_source</td><td style="vertical-align:top;">:</td><td><div>False</div></td></tr><tr><td style="font-weight:bold;vertical-align:top;">local_hosts</td><td style="vertical-align:top;">:</td><td><div><table><tr><td><div>DESKTOP-L20575K</div></td></tr><tr><td><div>::ffff:127.0.0.1</div></td></tr><tr><td><div>fe80::9563:d3b:22c2:93a0%16</div></td></tr><tr><td><div>fe80::2449:9c8:4527:9ba8%8</div></td></tr><tr><td><div>192.168.0.115</div></td></tr><tr><td><div>::1</div></td></tr><tr><td><div>2001:0:9d38:78cf:2449:9c8:4527:9ba8</div></td></tr><tr><td><div>127.0.0.1</div></td></tr></table></div></td></tr><tr><td style="font-weight:bold;vertical-align:top;">path_info</td><td style="vertical-align:top;">:</td><td><div>/RAFA/default/ver_estoque</div></td></tr><tr><td style="font-weight:bold;vertical-align:top;">query_string</td><td style="vertical-align:top;">:</td><td><div></div></td></tr><tr><td style="font-weight:bold;vertical-align:top;">remote_addr</td><td style="vertical-align:top;">:</td><td><div>127.0.0.1</div></td></tr><tr><td style="font-weight:bold;vertical-align:top;">remote_port</td><td style="vertical-align:top;">:</td><td><div>51690</div></td></tr><tr><td style="font-weight:bold;vertical-align:top;">request_method</td><td style="vertical-align:top;">:</td><td><div>GET</div></td></tr><tr><td style="font-weight:bold;vertical-align:top;">request_uri</td><td style="vertical-align:top;">:</td><td><div>/RAFA/default/ver_estoque</div></td></tr><tr><td style="font-weight:bold;vertical-align:top;">script_name</td><td style="vertical-align:top;">:</td><td><div></div></td></tr><tr><td style="font-weight:bold;vertical-align:top;">server_name</td><td style="vertical-align:top;">:</td><td><div>DESKTOP-L20575K</div></td></tr><tr><td style="font-weight:bold;vertical-align:top;">server_port</td><td style="vertical-align:top;">:</td><td><div>8000</div></td></tr><tr><td style="font-weight:bold;vertical-align:top;">server_protocol</td><td style="vertical-align:top;">:</td><td><div>HTTP/1.1</div></td></tr><tr><td style="font-weight:bold;vertical-align:top;">server_software</td><td style="vertical-align:top;">:</td><td><div>Rocket 1.2.6</div></td></tr><tr><td style="font-weight:bold;vertical-align:top;">web2py_path</td><td style="vertical-align:top;">:</td><td><div>C:\\Users\\Gabriel\\Documents\\Backend\\RAFA\\web2py</div></td></tr><tr><td style="font-weight:bold;vertical-align:top;">web2py_version</td><td style="vertical-align:top;">:</td><td><div>2.15.2-stable+timestamp.2017.07.19.12.18.41</div></td></tr><tr><td style="font-weight:bold;vertical-align:top;">wsgi.errors</td><td style="vertical-align:top;">:</td><td><div>&lt;open file &#x27;&lt;stderr&gt;&#x27;, mode &#x27;w&#x27; at 0x0224D0D0&gt;</div></td></tr><tr><td style="font-weight:bold;vertical-align:top;">wsgi.file_wrapper</td><td style="vertical-align:top;">:</td><td><div>&lt;class wsgiref.util.FileWrapper at 0x032640A0&gt;</div></td></tr><tr><td style="font-weight:bold;vertical-align:top;">wsgi.input</td><td style="vertical-align:top;">:</td><td><div>&lt;socket._fileobject object at 0x04749D70&gt;</div></td></tr><tr><td style="font-weight:bold;vertical-align:top;">wsgi.multiprocess</td><td style="vertical-align:top;">:</td><td><div>False</div></td></tr><tr><td style="font-weight:bold;vertical-align:top;">wsgi.multithread</td><td style="vertical-align:top;">:</td><td><div>True</div></td></tr><tr><td style="font-weight:bold;vertical-align:top;">wsgi.run_once</td><td style="vertical-align:top;">:</td><td><div>False</div></td></tr><tr><td style="font-weight:bold;vertical-align:top;">wsgi.url_scheme</td><td style="vertical-align:top;">:</td><td><div>http</div></td></tr><tr><td style="font-weight:bold;vertical-align:top;">wsgi.version</td><td style="vertical-align:top;">:</td><td><div><table><tr><td><div>1</div></td></tr><tr><td><div>0</div></td></tr></table></div></td></tr><tr><td style="font-weight:bold;vertical-align:top;">wsgi_errors</td><td style="vertical-align:top;">:</td><td><div>&lt;open file &#x27;&lt;stderr&gt;&#x27;, mode &#x27;w&#x27; at 0x0224D0D0&gt;</div></td></tr><tr><td style="font-weight:bold;vertical-align:top;">wsgi_file_wrapper</td><td style="vertical-align:top;">:</td><td><div>&lt;class wsgiref.util.FileWrapper at 0x032640A0&gt;</div></td></tr><tr><td style="font-weight:bold;vertical-align:top;">wsgi_input</td><td style="vertical-align:top;">:</td><td><div>&lt;socket._fileobject object at 0x04749D70&gt;</div></td></tr><tr><td style="font-weight:bold;vertical-align:top;">wsgi_multiprocess</td><td style="vertical-align:top;">:</td><td><div>False</div></td></tr><tr><td style="font-weight:bold;vertical-align:top;">wsgi_multithread</td><td style="vertical-align:top;">:</td><td><div>True</div></td></tr><tr><td style="font-weight:bold;vertical-align:top;">wsgi_run_once</td><td style="vertical-align:top;">:</td><td><div>False</div></td></tr><tr><td style="font-weight:bold;vertical-align:top;">wsgi_url_scheme</td><td style="vertical-align:top;">:</td><td><div>http</div></td></tr><tr><td style="font-weight:bold;vertical-align:top;">wsgi_version</td><td style="vertical-align:top;">:</td><td><div><table><tr><td><div>1</div></td></tr><tr><td><div>0</div></td></tr></table></div></td></tr></table></div></td></tr><tr><td style="font-weight:bold;vertical-align:top;">extension</td><td style="vertical-align:top;">:</td><td><div>html</div></td></tr><tr><td style="font-weight:bold;vertical-align:top;">folder</td><td style="vertical-align:top;">:</td><td><div>C:\\Users\\Gabriel\\Documents\\Backend\\RAFA\\web2py\\applications\\RAFA\\</div></td></tr><tr><td style="font-weight:bold;vertical-align:top;">function</td><td style="vertical-align:top;">:</td><td><div>ver_estoque</div></td></tr><tr><td style="font-weight:bold;vertical-align:top;">global_settings</td><td style="vertical-align:top;">:</td><td><div><table><tr><td style="font-weight:bold;vertical-align:top;">app_folders</td><td style="vertical-align:top;">:</td><td><div>set([&#x27;C:\\\\Users\\\\Gabriel\\\\Documents\\\\Backend\\\\RAFA\\\\web2py\\\\applications\\\\admin\\\\&#x27;, &#x27;C:\\\\Users\\\\Gabriel\\\\Documents\\\\Backend\\\\RAFA\\\\web2py\\\\applications\\\\RAFA\\\\&#x27;, &#x27;C:\\\\Users\\\\Gabriel\\\\Documents\\\\Backend\\\\RAFA\\\\web2py\\\\applications\\\\welcome\\\\&#x27;])</div></td></tr><tr><td style="font-weight:bold;vertical-align:top;">applications_parent</td><td style="vertical-align:top;">:</td><td><div>C:\\Users\\Gabriel\\Documents\\Backend\\RAFA\\web2py</div></td></tr><tr><td style="font-weight:bold;vertical-align:top;">cmd_args</td><td style="vertical-align:top;">:</td><td><div><table></table></div></td></tr><tr><td style="font-weight:bold;vertical-align:top;">cmd_options</td><td style="vertical-align:top;">:</td><td><div>&lt;Values at 0x33dd0d0: {&#x27;verbose&#x27;: False, &#x27;ip&#x27;: &#x27;127.0.0.1&#x27;, &#x27;debuglevel&#x27;: 30, &#x27;with_scheduler&#x27;: False, &#x27;shutdown_timeout&#x27;: 5, &#x27;taskbar&#x27;: False, &#x27;with_coverage&#x27;: False, &#x27;pid_filename&#x27;: &#x27;httpserver.pid&#x27;, &#x27;maxthreads&#x27;: None, &#x27;softcron&#x27;: False, &#x27;server_name&#x27;: &#x27;DESKTOP-L20575K&#x27;, &#x27;bpython&#x27;: False, &#x27;nogui&#x27;: False, &#x27;port&#x27;: 8000, &#x27;print_errors&#x27;: False, &#x27;extcron&#x27;: False, &#x27;runcron&#x27;: False, &#x27;run_system_tests&#x27;: False, &#x27;test&#x27;: None, &#x27;folder&#x27;: &#x27;C:\\\\Users\\\\Gabriel\\\\Documents\\\\Backend\\\\RAFA\\\\web2py&#x27;, &#x27;config&#x27;: &#x27;&#x27;, &#x27;minthreads&#x27;: None, &#x27;shell&#x27;: None, &#x27;run&#x27;: &#x27;&#x27;, &#x27;log_filename&#x27;: &#x27;httpserver.log&#x27;, &#x27;profiler_dir&#x27;: None, &#x27;args&#x27;: [&#x27;&#x27;], &#x27;socket_timeout&#x27;: 5, &#x27;ssl_ca_certificate&#x27;: None, &#x27;scheduler&#x27;: None, &#x27;interfaces&#x27;: None, &#x27;ssl_private_key&#x27;: &#x27;&#x27;, &#x27;gae&#x27;: None, &#x27;password&#x27;: &#x27;******&#x27;, &#x27;request_queue_size&#x27;: 5, &#x27;ssl_certificate&#x27;: &#x27;&#x27;, &#x27;cronjob&#x27;: False, &#x27;numthreads&#x27;: None, &#x27;quiet&#x27;: False, &#x27;import_models&#x27;: False, &#x27;timeout&#x27;: 10, &#x27;plain&#x27;: False, &#x27;nobanner&#x27;: False}&gt;</div></td></tr><tr><td style="font-weight:bold;vertical-align:top;">db_sessions</td><td style="vertical-align:top;">:</td><td><div>set([])</div></td></tr><tr><td style="font-weight:bold;vertical-align:top;">debugging</td><td style="vertical-align:top;">:</td><td><div>False</div></td></tr><tr><td style="font-weight:bold;vertical-align:top;">gluon_parent</td><td style="vertical-align:top;">:</td><td><div>C:\\Users\\Gabriel\\Documents\\Backend\\RAFA\\web2py</div></td></tr><tr><td style="font-weight:bold;vertical-align:top;">is_jython</td><td style="vertical-align:top;">:</td><td><div>False</div></td></tr><tr><td style="font-weight:bold;vertical-align:top;">is_py2</td><td style="vertical-align:top;">:</td><td><div>True</div></td></tr><tr><td style="font-weight:bold;vertical-align:top;">is_pypy</td><td style="vertical-align:top;">:</td><td><div>False</div></td></tr><tr><td style="font-weight:bold;vertical-align:top;">is_source</td><td style="vertical-align:top;">:</td><td><div>False</div></td></tr><tr><td style="font-weight:bold;vertical-align:top;">local_hosts</td><td style="vertical-align:top;">:</td><td><div><table><tr><td><div>DESKTOP-L20575K</div></td></tr><tr><td><div>::ffff:127.0.0.1</div></td></tr><tr><td><div>fe80::9563:d3b:22c2:93a0%16</div></td></tr><tr><td><div>fe80::2449:9c8:4527:9ba8%8</div></td></tr><tr><td><div>192.168.0.115</div></td></tr><tr><td><div>::1</div></td></tr><tr><td><div>2001:0:9d38:78cf:2449:9c8:4527:9ba8</div></td></tr><tr><td><div>127.0.0.1</div></td></tr></table></div></td></tr><tr><td style="font-weight:bold;vertical-align:top;">web2py_version</td><td style="vertical-align:top;">:</td><td><div>2.15.2-stable+timestamp.2017.07.19.12.18.41</div></td></tr></table></div></td></tr><tr><td style="font-weight:bold;vertical-align:top;">is_https</td><td style="vertical-align:top;">:</td><td><div>False</div></td></tr><tr><td style="font-weight:bold;vertical-align:top;">is_local</td><td style="vertical-align:top;">:</td><td><div>True</div></td></tr><tr><td style="font-weight:bold;vertical-align:top;">is_restful</td><td style="vertical-align:top;">:</td><td><div>False</div></td></tr><tr><td style="font-weight:bold;vertical-align:top;">is_scheduler</td><td style="vertical-align:top;">:</td><td><div>False</div></td></tr><tr><td style="font-weight:bold;vertical-align:top;">is_shell</td><td style="vertical-align:top;">:</td><td><div>False</div></td></tr><tr><td style="font-weight:bold;vertical-align:top;">now</td><td style="vertical-align:top;">:</td><td><div>datetime.datetime(2017, 11, 12, 16, 49, 5, 434000)</div></td></tr><tr><td style="font-weight:bold;vertical-align:top;">raw_args</td><td style="vertical-align:top;">:</td><td><div></div></td></tr><tr><td style="font-weight:bold;vertical-align:top;">raw_extension</td><td style="vertical-align:top;">:</td><td><div>None</div></td></tr><tr><td style="font-weight:bold;vertical-align:top;">url</td><td style="vertical-align:top;">:</td><td><div>/RAFA/default/ver_estoque</div></td></tr><tr><td style="font-weight:bold;vertical-align:top;">utcnow</td><td style="vertical-align:top;">:</td><td><div>datetime.datetime(2017, 11, 12, 18, 49, 5, 434000)</div></td></tr><tr><td style="font-weight:bold;vertical-align:top;">wsgi</td><td style="vertical-align:top;">:</td><td><div>&lt;gluon.main.LazyWSGI object at 0x045C9E50&gt;</div></td></tr></table></div>'
tRp60
sS'frames'
p61
(lp62
(dp63
S'file'
p64
S'C:\\Users\\Gabriel\\Documents\\Backend\\RAFA\\web2py\\gluon\\restricted.py'
p65
sS'dump'
p66
(dp67
S'environment'
p68
S"{'A': <class 'gluon.html.A'>, 'ANY_OF': <class 'gluon.validators.ANY_OF'>, 'ASSIGNJS': <function ASSIGNJS>, 'AppConfig': <function AppConfig>, 'Auth': <class 'gluon.tools.Auth'>, 'B': <class 'gluon.html.B'>, 'BEAUTIFY': <class 'gluon.html.BEAUTIFY'>, 'BODY': <class 'gluon.html.BODY'>, 'BR': <class 'gluon.html.BR'>, 'BUTTON': <class 'gluon.html.BUTTON'>, ...}"
p69
sS'ccode'
p70
S'<code object <module> at 0985B140, file "C:\\User...plications\\RAFA\\controllers/default.py", line 12>'
p71
ssS'lnum'
p72
I219
sS'lines'
p73
(dp74
I214
S'    if environment is None:'
p75
sI215
S'        environment = {}'
p76
sI216
S"    environment['__file__'] = layer"
p77
sI217
S"    environment['__name__'] = '__restricted__'"
p78
sI218
S'    try:'
p79
sI219
S'        exec(ccode, environment)'
p80
sI220
S'    except HTTP:'
p81
sI221
S'        raise'
p82
sI222
S'    except RestrictedError:'
p83
sI223
S'        # do not encapsulate (obfuscate) the original RestrictedError'
p84
ssS'call'
p85
S'(ccode=<code object <module> at 0985B140, file "C:\\User...plications\\RAFA\\controllers/default.py", line 12>, environment={\'A\': <class \'gluon.html.A\'>, \'ANY_OF\': <class \'gluon.validators.ANY_OF\'>, \'ASSIGNJS\': <function ASSIGNJS>, \'AppConfig\': <function AppConfig>, \'Auth\': <class \'gluon.tools.Auth\'>, \'B\': <class \'gluon.html.B\'>, \'BEAUTIFY\': <class \'gluon.html.BEAUTIFY\'>, \'BODY\': <class \'gluon.html.BODY\'>, \'BR\': <class \'gluon.html.BR\'>, \'BUTTON\': <class \'gluon.html.BUTTON\'>, ...}, layer=r\'C:\\Users\\Gabriel\\Documents\\Backend\\RAFA\\web2py\\applications\\RAFA\\controllers/default.py\')'
p86
sS'func'
p87
S'restricted'
p88
sa(dp89
g64
S'C:\\Users\\Gabriel\\Documents\\Backend\\RAFA\\web2py\\applications\\RAFA\\controllers\\default.py'
p90
sg66
(dp91
sg72
I290
sg73
(dp92
I288
S'    grid = SQLFORM.grid(CarrosFinanciados)'
p93
sI289
S'    return dict(grid=grid)'
p94
sI280
S'                        left=db.carros.on(db.despesas.carro == db.carros.id),'
p95
sI281
S'                        create = False,'
p96
sI282
S'                        fields = fields,'
p97
sI283
S'                        deletable = False)'
p98
sI284
S''
sI285
S'    return dict(grid=grid)'
p99
sI286
S''
sI287
S'def ver_financiados():'
p100
ssg85
S'()'
p101
sg87
S'<module>'
p102
sa(dp103
g64
S'C:\\Users\\Gabriel\\Documents\\Backend\\RAFA\\web2py\\gluon\\globals.py'
p104
sg66
(dp105
S'self'
p106
S'undefined'
p107
sS'f'
S'<function ver_estoque>'
p108
ssg72
I409
sg73
(dp109
I404
S"        self.flash = ''            # used by the default view layout"
p110
sI405
S'        self.meta = Storage()      # used by web2py_ajax.html'
p111
sI406
S'        self.menu = []             # used by the default view layout'
p112
sI407
S'        self.files = []            # used by web2py_ajax.html'
p113
sI408
S'        self._vars = None'
p114
sI409
S'        self._caller = lambda f: f()'
p115
sI410
S'        self._view_environment = None'
p116
sI411
S'        self._custom_commit = None'
p117
sI412
S'        self._custom_rollback = None'
p118
sI413
S"        self.generic_patterns = ['*']"
p119
ssg85
S'(f=<function ver_estoque>)'
p120
sg87
S'<lambda>'
p121
sa(dp122
g64
S'C:\\Users\\Gabriel\\Documents\\Backend\\RAFA\\web2py\\applications\\RAFA\\controllers\\default.py'
p123
sg66
(dp124
S'links'
p125
S'([<function <lambda>>],)'
p126
ssg72
I264
sg73
(dp127
I259
S'    grid = SQLFORM.grid(db.carros_estoque,'
p128
sI260
S'                        left = db.carros.on(db.carros_estoque.carro == db.carros.id),'
p129
sI261
S'                        fields = fields,'
p130
sI262
S'                        create = False,'
p131
sI263
S'                        deletable = False,'
p132
sI264
S'                        links=links)'
p133
sI265
S''
sI266
S'    return dict(grid=grid)'
p134
sI267
S''
sI268
S'def ver_consig():'
p135
ssg85
S'()'
p136
sg87
S'ver_estoque'
p137
sa(dp138
g64
S'C:\\Users\\Gabriel\\Documents\\Backend\\RAFA\\web2py\\gluon\\sqlhtml.py'
p139
sg66
(dp140
S'link'
p141
S'[<function <lambda>>]'
p142
sS'row'
p143
S"<Row {'carros_estoque': {'despesa_total': 0.0, '...0', 'data_entrada': datetime.date(2017, 11, 4)}}>"
p144
ssg72
I2923
sg73
(dp145
I2918
S'                    toadd = []'
p146
sI2919
S'                    for link in links:'
p147
sI2920
S'                        if isinstance(link, dict):'
p148
sI2921
S"                            toadd.append(TD(link['body'](row)))"
p149
sI2922
S'                        else:'
p150
sI2923
S'                            if link(row):'
p151
sI2924
S'                                row_buttons.append(link(row))'
p152
sI2925
S"                    if links_placement in ['right', 'both']:"
p153
sI2926
S'                        trcols.extend(toadd)'
p154
sI2927
S"                    if links_placement in ['left', 'both']:"
p155
ssg85
S"(query=<Table carros_estoque (id, carro, valor_compra, despesa_total)>, fields=[<pydal.objects.Field object>, <pydal.objects.Field object>, <pydal.objects.Field object>, <pydal.objects.Field object>, <pydal.objects.Field object>], field_id=<pydal.objects.Field object>, left=[<pydal.objects.Expression object>], headers={}, orderby=<pydal.objects.Field object>, groupby=None, searchable=True, sortable=True, paginate=20, deletable=None, editable=None, details=True, selectable=None, create=None, csv=True, links=([<function <lambda>>],), links_in_grid=True, upload=<function <lambda>>, args=[], user_signature=True, maxtextlengths={}, maxtextlength=20, onvalidation=None, onfailure=None, oncreate=None, onupdate=None, ondelete=None, sorter_icons=(&#x25B2;, &#x25BC;), ui={'button': 'button btn btn-default', 'buttonadd': 'icon plus icon-plus glyphicon glyphicon-plus', 'buttonback': 'icon leftarrow icon-arrow-left glyphicon glyphicon-arrow-left', 'buttondelete': 'icon trash icon-trash glyphicon glyphicon-trash', 'buttonedit': 'icon pen icon-pencil glyphicon glyphicon-pencil', 'buttonexport': 'icon downarrow icon-download glyphicon glyphicon-download', 'buttontable': 'icon rightarrow icon-arrow-right glyphicon glyphicon-arrow-right', 'buttontext': 'buttontext button', 'buttonview': 'icon magnifier icon-zoom-in glyphicon glyphicon-zoom-in', 'content': '', ...}, showbuttontext=True, _class='web2py_grid', formname='web2py_grid', search_widget=<function <lambda>>, advanced_search=True, ignore_rw=False, formstyle='bootstrap3_inline', exportclasses=None, formargs={}, createargs={}, editargs={}, viewargs={}, selectable_submit_button='Submit', buttons_placement='right', links_placement='right', noconfirm=False, cache_count=None, client_side_delete=False, ignore_common_filters=None, auto_pagination=True, use_cursor=False, represent_none=None, showblobs=False)"
p156
sg87
S'grid'
p157
sasS'pyver'
p158
S'Python 2.7.9: C:\\Users\\Gabriel\\Documents\\Backend\\RAFA\\web2py\\web2py.exe (prefix: )'
p159
sS'session'
p160
g59
(S's\x9c\x00\x00\x00<div><table><tr><td style="font-weight:bold;vertical-align:top;">flash</td><td style="vertical-align:top;">:</td><td><div>None</div></td></tr></table></div>'
tRp161
sS'etype'
p162
S"<type 'exceptions.TypeError'>"
p163
sS'date'
p164
S'Sun Nov 12 16:49:05 2017'
p165
sS'response'
p166
g59
(S's\xca\'\x00\x00<div><table><tr><td style="font-weight:bold;vertical-align:top;">body</td><td style="vertical-align:top;">:</td><td><div>&lt;cStringIO.StringO object at 0x0948B6E0&gt;</div></td></tr><tr><td style="font-weight:bold;vertical-align:top;">cookies</td><td style="vertical-align:top;">:</td><td><div><table><tr><td style="font-weight:bold;vertical-align:top;">session_id_rafa</td><td style="vertical-align:top;">:</td><td><div>127.0.0.1-8f60086a-f164-42a3-93c3-3f61580d5529<table><tr><td style="font-weight:bold;vertical-align:top;">comment</td><td style="vertical-align:top;">:</td><td><div></div></td></tr><tr><td style="font-weight:bold;vertical-align:top;">domain</td><td style="vertical-align:top;">:</td><td><div></div></td></tr><tr><td style="font-weight:bold;vertical-align:top;">expires</td><td style="vertical-align:top;">:</td><td><div></div></td></tr><tr><td style="font-weight:bold;vertical-align:top;">httponly</td><td style="vertical-align:top;">:</td><td><div></div></td></tr><tr><td style="font-weight:bold;vertical-align:top;">max-age</td><td style="vertical-align:top;">:</td><td><div></div></td></tr><tr><td style="font-weight:bold;vertical-align:top;">path</td><td style="vertical-align:top;">:</td><td><div>/</div></td></tr><tr><td style="font-weight:bold;vertical-align:top;">secure</td><td style="vertical-align:top;">:</td><td><div></div></td></tr><tr><td style="font-weight:bold;vertical-align:top;">version</td><td style="vertical-align:top;">:</td><td><div></div></td></tr></table></div></td></tr></table></div></td></tr><tr><td style="font-weight:bold;vertical-align:top;">delimiters</td><td style="vertical-align:top;">:</td><td><div><table><tr><td><div>{{</div></td></tr><tr><td><div>}}</div></td></tr></table></div></td></tr><tr><td style="font-weight:bold;vertical-align:top;">files</td><td style="vertical-align:top;">:</td><td><div><table></table></div></td></tr><tr><td style="font-weight:bold;vertical-align:top;">flash</td><td style="vertical-align:top;">:</td><td><div></div></td></tr><tr><td style="font-weight:bold;vertical-align:top;">form_label_separator</td><td style="vertical-align:top;">:</td><td><div></div></td></tr><tr><td style="font-weight:bold;vertical-align:top;">formstyle</td><td style="vertical-align:top;">:</td><td><div>bootstrap3_inline</div></td></tr><tr><td style="font-weight:bold;vertical-align:top;">generic_patterns</td><td style="vertical-align:top;">:</td><td><div><table><tr><td><div>*</div></td></tr></table></div></td></tr><tr><td style="font-weight:bold;vertical-align:top;">headers</td><td style="vertical-align:top;">:</td><td><div><table><tr><td style="font-weight:bold;vertical-align:top;">X-Powered-By</td><td style="vertical-align:top;">:</td><td><div>web2py</div></td></tr></table></div></td></tr><tr><td style="font-weight:bold;vertical-align:top;">logo</td><td style="vertical-align:top;">:</td><td><div><a class="navbar-brand" href="index.html" id="web2py-logo"><b><span>RAFA </span>autom\xc3\xb3veis</b></a></div></td></tr><tr><td style="font-weight:bold;vertical-align:top;">menu</td><td style="vertical-align:top;">:</td><td><div><table><tr><td><div><table><tr><td><div>Cadastros</div></td></tr><tr><td><div>False</div></td></tr><tr><td><div>#</div></td></tr><tr><td><div><table><tr><td><div><table><tr><td><div>Cadastrar novo carro</div></td></tr><tr><td><div>False</div></td></tr><tr><td><div>/RAFA/default/novo_carro</div></td></tr><tr><td><div>[]</div></td></tr></table></div></td></tr><tr><td><div><table><tr><td><div>Cadastrar novo cliente</div></td></tr><tr><td><div>False</div></td></tr><tr><td><div>/RAFA/default/novo_cliente</div></td></tr><tr><td><div>[]</div></td></tr></table></div></td></tr><tr><td><div><table><tr><td><div>Cadastrar carro no estoque</div></td></tr><tr><td><div>False</div></td></tr><tr><td><div>/RAFA/default/novo_estoque</div></td></tr><tr><td><div>[]</div></td></tr></table></div></td></tr><tr><td><div><table><tr><td><div>Cadastrar nova venda</div></td></tr><tr><td><div>False</div></td></tr><tr><td><div>/RAFA/default/nova_venda</div></td></tr><tr><td><div>[]</div></td></tr></table></div></td></tr><tr><td><div><table><tr><td><div>Cadastrar nova consigna\xc3\xa7\xc3\xa3o</div></td></tr><tr><td><div>False</div></td></tr><tr><td><div>/RAFA/default/novo_consignado</div></td></tr><tr><td><div>[]</div></td></tr></table></div></td></tr><tr><td><div><table><tr><td><div>Cadastrar despesas</div></td></tr><tr><td><div>False</div></td></tr><tr><td><div>/RAFA/default/nova_despesa</div></td></tr><tr><td><div>[]</div></td></tr></table></div></td></tr></table></div></td></tr></table></div></td></tr><tr><td><div><table><tr><td><div>Carros</div></td></tr><tr><td><div>False</div></td></tr><tr><td><div>#</div></td></tr><tr><td><div><table><tr><td><div><table><tr><td><div>Todos os carros</div></td></tr><tr><td><div>False</div></td></tr><tr><td><div>/RAFA/default/ver_carros</div></td></tr><tr><td><div>[]</div></td></tr></table></div></td></tr><tr><td><div><li class="divider"></li></div></td></tr><tr><td><div><table><tr><td><div>Estoque</div></td></tr><tr><td><div>False</div></td></tr><tr><td><div>/RAFA/default/ver_estoque</div></td></tr><tr><td><div>[]</div></td></tr></table></div></td></tr><tr><td><div><table><tr><td><div>consignados</div></td></tr><tr><td><div>False</div></td></tr><tr><td><div>/RAFA/default/ver_consig</div></td></tr><tr><td><div>[]</div></td></tr></table></div></td></tr><tr><td><div><table><tr><td><div>Vendidos</div></td></tr><tr><td><div>False</div></td></tr><tr><td><div>/RAFA/default/ver_vendas</div></td></tr><tr><td><div>[]</div></td></tr></table></div></td></tr></table></div></td></tr></table></div></td></tr><tr><td><div><table><tr><td><div>Despesas</div></td></tr><tr><td><div>False</div></td></tr><tr><td><div>/RAFA/default/ver_despesas</div></td></tr><tr><td><div><table></table></div></td></tr></table></div></td></tr><tr><td><div><table><tr><td><div>cliente</div></td></tr><tr><td><div>False</div></td></tr><tr><td><div>/RAFA/default/ver_clientes</div></td></tr><tr><td><div><table></table></div></td></tr></table></div></td></tr></table></div></td></tr><tr><td style="font-weight:bold;vertical-align:top;">meta</td><td style="vertical-align:top;">:</td><td><div><table><tr><td style="font-weight:bold;vertical-align:top;">author</td><td style="vertical-align:top;">:</td><td><div>Your Name &lt;you@example.com&gt;</div></td></tr><tr><td style="font-weight:bold;vertical-align:top;">description</td><td style="vertical-align:top;">:</td><td><div>a cool new app</div></td></tr><tr><td style="font-weight:bold;vertical-align:top;">generator</td><td style="vertical-align:top;">:</td><td><div>Web2py Web Framework</div></td></tr><tr><td style="font-weight:bold;vertical-align:top;">keywords</td><td style="vertical-align:top;">:</td><td><div><table><tr><td><div>web2py</div></td></tr><tr><td><div>python</div></td></tr><tr><td><div>framework</div></td></tr></table></div></td></tr></table></div></td></tr><tr><td style="font-weight:bold;vertical-align:top;">models_to_run</td><td style="vertical-align:top;">:</td><td><div><table><tr><td><div>^\\w+\\.py$</div></td></tr><tr><td><div>^default/\\w+\\.py$</div></td></tr><tr><td><div>^default/ver_estoque/\\w+\\.py$</div></td></tr></table></div></td></tr><tr><td style="font-weight:bold;vertical-align:top;">postprocessing</td><td style="vertical-align:top;">:</td><td><div><table></table></div></td></tr><tr><td style="font-weight:bold;vertical-align:top;">session_client</td><td style="vertical-align:top;">:</td><td><div>127.0.0.1</div></td></tr><tr><td style="font-weight:bold;vertical-align:top;">session_cookie_compression_level</td><td style="vertical-align:top;">:</td><td><div>None</div></td></tr><tr><td style="font-weight:bold;vertical-align:top;">session_cookie_expires</td><td style="vertical-align:top;">:</td><td><div>None</div></td></tr><tr><td style="font-weight:bold;vertical-align:top;">session_data_name</td><td style="vertical-align:top;">:</td><td><div>session_data_rafa</div></td></tr><tr><td style="font-weight:bold;vertical-align:top;">session_file</td><td style="vertical-align:top;">:</td><td><div>&lt;open file &#x27;C:\\\\Users\\\\Gabriel\\\\Documents\\\\Backend\\\\RAFA\\\\web2py\\\\applications\\\\RAFA\\\\sessions\\\\1de\\\\05b\\\\127.0.0.1-8f60086a-f164-42a3-93c3-3f61580d5529&#x27;, mode &#x27;rb+&#x27; at 0x04BBC5A0&gt;</div></td></tr><tr><td style="font-weight:bold;vertical-align:top;">session_filename</td><td style="vertical-align:top;">:</td><td><div>C:\\Users\\Gabriel\\Documents\\Backend\\RAFA\\web2py\\applications\\RAFA\\sessions\\127.0.0.1-8f60086a-f164-42a3-93c3-3f61580d5529</div></td></tr><tr><td style="font-weight:bold;vertical-align:top;">session_hash</td><td style="vertical-align:top;">:</td><td><div>7eb0273a46a9a4aab81264c8c3bf7a97</div></td></tr><tr><td style="font-weight:bold;vertical-align:top;">session_id</td><td style="vertical-align:top;">:</td><td><div>127.0.0.1-8f60086a-f164-42a3-93c3-3f61580d5529</div></td></tr><tr><td style="font-weight:bold;vertical-align:top;">session_id_name</td><td style="vertical-align:top;">:</td><td><div>session_id_rafa</div></td></tr><tr><td style="font-weight:bold;vertical-align:top;">session_locked</td><td style="vertical-align:top;">:</td><td><div>True</div></td></tr><tr><td style="font-weight:bold;vertical-align:top;">session_masterapp</td><td style="vertical-align:top;">:</td><td><div>RAFA</div></td></tr><tr><td style="font-weight:bold;vertical-align:top;">session_new</td><td style="vertical-align:top;">:</td><td><div>False</div></td></tr><tr><td style="font-weight:bold;vertical-align:top;">session_storage_type</td><td style="vertical-align:top;">:</td><td><div>file</div></td></tr><tr><td style="font-weight:bold;vertical-align:top;">status</td><td style="vertical-align:top;">:</td><td><div>200</div></td></tr><tr><td style="font-weight:bold;vertical-align:top;">subtitle</td><td style="vertical-align:top;">:</td><td><div></div></td></tr><tr><td style="font-weight:bold;vertical-align:top;">title</td><td style="vertical-align:top;">:</td><td><div>Rafa</div></td></tr><tr><td style="font-weight:bold;vertical-align:top;">view</td><td style="vertical-align:top;">:</td><td><div>default/ver_estoque.html</div></td></tr></table></div>'
tRp167
sS'locals'
p168
(dp169
S'toadd'
p170
S'[]'
p171
sS'searchable'
p172
S'True'
p173
sS'sfields'
p174
S'[<pydal.objects.Field object>, <pydal.objects.Field object>, <pydal.objects.Field object>, <pydal.objects.Field object>, <pydal.objects.Field object>, <pydal.objects.Field object>, <pydal.objects.Field object>, <pydal.objects.Field object>, <pydal.objects.Field object>, <pydal.objects.Field object>, <pydal.objects.Field object>, <pydal.objects.Field object>, <pydal.objects.Field object>, <pydal.objects.Field object>, <pydal.objects.Field object>, <pydal.objects.Field object>]'
p175
sS'paginate'
p176
S'20'
p177
sS'cols'
p178
S'[<gluon.html.COL object>, <gluon.html.COL object>, <gluon.html.COL object>, <gluon.html.COL object>, <gluon.html.COL object>]'
p179
sS'prefix'
p180
S"'w2p'"
p181
sg160
S"<Storage {'flash': None, '_formkey[carros/create...ate]': ['bc3dc88b-5b8e-433e-a362-49703511c475']}>"
p182
sS'keywords'
p183
S"''"
p184
sS'query'
p185
S'<Table carros_estoque (id, carro, valor_compra, despesa_total)>'
p186
sS'row'
p187
S"<Row {'carros_estoque': {'despesa_total': 0.0, '...0', 'data_entrada': datetime.date(2017, 11, 4)}}>"
p188
sS'paginator'
p189
S'<gluon.html.UL object>'
p190
sS'tables'
p191
S'[<Table carros_estoque (id, carro, valor_compra, despesa_total)>, <Table carros (id, placa, ano, modelo, renavan, ...ta_entrada, chave_reserva, manual_carro, recibo)>]'
p192
sS'console'
p193
S'<gluon.html.DIV object>'
p194
sS'fetch_count'
p195
S'<function fetch_count>'
p196
sS'logged'
p197
S'None'
p198
sS'update_form'
p199
S'None'
p200
sS'onupdate'
p201
S'None'
p202
sS'search_menu'
p203
S'<gluon.html.CAT object>'
p204
sS'add'
p205
S"''"
p206
sS'user_signature'
p207
g173
sS'onvalidation'
p208
S'None'
p209
sS'dbset'
p210
S'<Set ("carros_estoque"."id" IS NOT NULL)>'
p211
sS'columns'
p212
S'[<pydal.objects.Field object>, <pydal.objects.Field object>, <pydal.objects.Field object>, <pydal.objects.Field object>]'
p213
sS'onfailure'
p214
S'None'
p215
sS'use_cursor'
p216
S'False'
p217
sS'ignore_common_filters'
p218
S'None'
p219
sS'db'
p220
S'<DAL uri="sqlite://storage.sqlite">'
p221
sS'nrows'
p222
S'1'
sS'T'
S'<gluon.languages.translator object>'
p223
sS'gridbutton'
p224
S'<function gridbutton>'
p225
sS'join'
p226
S'<pydal.objects.Expression object>'
p227
sS'formname'
p228
S"'web2py_grid'"
p229
sS'_class'
p230
S"'web2py_grid'"
p231
sS'fields'
p232
S'[<pydal.objects.Field object>, <pydal.objects.Field object>, <pydal.objects.Field object>, <pydal.objects.Field object>, <pydal.objects.Field object>]'
p233
sS'editargs'
p234
g19
sS'upload'
p235
S'<function <lambda>>'
p236
sS'subquery'
p237
S'None'
p238
sS'hidden_fields'
p239
S'[]'
p240
sS'referrer'
p241
S"'/RAFA/default/ver_carros'"
p242
sS'oncreate'
p243
S'None'
p244
sS'trcols'
p245
S'[<gluon.html.TD object>, <gluon.html.TD object>, <gluon.html.TD object>, <gluon.html.TD object>]'
p246
sS'marker'
p247
S"''"
p248
sS'table_fields'
p249
S'[<pydal.objects.Field object>, <pydal.objects.Field object>, <pydal.objects.Field object>, <pydal.objects.Field object>, <pydal.objects.Field object>]'
p250
sS'cache_count'
p251
S'None'
p252
sS'client_side_delete'
p253
g217
sS'formstyle'
p254
S"'bootstrap3_inline'"
p255
sS'formfooter'
p256
S'<gluon.html.DIV object>'
p257
sS'create_form'
p258
S'None'
p259
sS'skeywords_id'
p260
S"'w2p_keywords'"
p261
sS'maxtextlengths'
p262
g19
sS'url2'
p263
S'<function url2>'
p264
sS't'
S'<Table carros (id, placa, ano, modelo, renavan, ...ta_entrada, chave_reserva, manual_carro, recibo)>'
p265
sS'numrec'
p266
S'0'
sS'exportManager'
p267
S"{'csv': (<class 'gluon.sqlhtml.ExporterCSV'>, 'CSV', <lazyT 'Comma-separated export of visible column...ar on-screen but this may be slow for many rows'>), 'csv_with_hidden_cols': (<class 'gluon.sqlhtml.ExporterCSV_hidden'>, 'CSV (hidden cols)', <lazyT 'Comma-separated export including columns...es are exported as raw values for faster export'>), 'html': (<class 'gluon.sqlhtml.ExporterHTML'>, 'HTML', <lazyT 'HTML export of visible columns'>), 'json': (<class 'gluon.sqlhtml.ExporterJSON'>, 'JSON', <lazyT 'JSON export of visible columns'>), 'tsv': (<class 'gluon.sqlhtml.ExporterTSV'>, 'TSV (Spreadsheets)', <lazyT 'Spreadsheet-optimised export of tab-separated content, visible columns only. May be slow.'>), 'tsv_with_hidden_cols': (<class 'gluon.sqlhtml.ExporterTSV'>, 'TSV (Spreadsheets, hidden cols)', <lazyT 'Spreadsheet-optimised export of tab-sepa...d content including hidden columns. May be slow'>), 'xml': (<class 'gluon.sqlhtml.ExporterXML'>, 'XML', <lazyT 'XML export of columns shown'>)}"
p268
sg44
S'[]'
p269
sS'next_cursor'
p270
S'None'
p271
sS'key'
p272
S"'carros_estoque.despesa_total'"
p273
sS'links_in_grid'
p274
g173
sS'selectable'
p275
S'None'
p276
sS'row_buttons'
p277
S'<gluon.html.TD object>'
p278
sS'c'
S'<pydal.objects.Field object>'
p279
sS'ordermatch'
p280
S"'None'"
p281
sS'search_form'
p282
S'None'
p283
sS'showbuttontext'
p284
g173
sS'maxlength'
p285
S'20'
p286
sS'links_placement'
p287
S"'right'"
p288
sS'groupby'
p289
S'None'
p290
sS'tablenames'
p291
S"{'carros': <Table carros (id, placa, ano, modelo, renavan, ...ta_entrada, chave_reserva, manual_carro, recibo)>, 'carros_estoque': <Table carros_estoque (id, carro, valor_compra, despesa_total)>}"
p292
sS'export_type'
p293
S'None'
p294
sS'exportclasses'
p295
S'None'
p296
sS'spanel_id'
p297
S"'w2p_query_fields'"
p298
sS'header'
p299
S'<gluon.html.A object>'
p300
sS'wenabled'
p301
S'None'
p302
sS'viewargs'
p303
g19
sS'table'
p304
S'<Table carros_estoque (id, carro, valor_compra, despesa_total)>'
p305
sg20
S"<lazyT '%(nrows)s records found'>"
p306
sS'selectable_submit_button'
p307
S"'Submit'"
p308
sS'buttons'
p309
S'<function buttons>'
p310
sS'rows'
p311
S'<Rows (1)>'
p312
sS'i'
S'0'
sS'ignore_rw'
p313
g217
sS'createargs'
p314
g19
sS'create'
p315
S'None'
p316
sS'tablename'
p317
S"'carros_estoque'"
p318
sS'formargs'
p319
g19
sS'fix_orderby'
p320
S'<function fix_orderby>'
p321
sS'represent_none'
p322
S'None'
p323
sS'linsert'
p324
S'<function linsert>'
p325
sS'auto_pagination'
p326
g173
sS'head'
p327
S'<gluon.html.TR object>'
p328
sS'form'
p329
S'<gluon.html.CAT object>'
p330
sS'left_cols'
p331
S'0'
sS'editable'
p332
S'None'
p333
sS'link'
p334
S'[<function <lambda>>]'
p335
sS'deletable'
p336
S'None'
p337
sS'orderby'
p338
S'<pydal.objects.Field object>'
p339
sS'include_buttons_column'
p340
g173
sS'sortable'
p341
g173
sS'f'
S'<pydal.objects.Field object>'
p342
sS'limitby'
p343
S'None'
p344
sS'value'
p345
S'0.0'
p346
sS'cursor'
p347
g173
sS'headers'
p348
g19
sS'sfields_id'
p349
S"'w2p_query_panel'"
p350
sS'headcols'
p351
S'[<gluon.html.TH object>, <gluon.html.TH object>, <gluon.html.TH object>, <gluon.html.TH object>, <gluon.html.TH object>]'
p352
sS'ui'
p353
S"{'button': 'button btn btn-default', 'buttonadd': 'icon plus icon-plus glyphicon glyphicon-plus', 'buttonback': 'icon leftarrow icon-arrow-left glyphicon glyphicon-arrow-left', 'buttondelete': 'icon trash icon-trash glyphicon glyphicon-trash', 'buttonedit': 'icon pen icon-pencil glyphicon glyphicon-pencil', 'buttonexport': 'icon downarrow icon-download glyphicon glyphicon-download', 'buttontable': 'icon rightarrow icon-arrow-right glyphicon glyphicon-arrow-right', 'buttontext': 'buttontext button', 'buttonview': 'icon magnifier icon-zoom-in glyphicon glyphicon-zoom-in', 'content': '', ...}"
p354
sS'error'
p355
S'None'
p356
sS'repr_cache'
p357
S'<gluon.sqlhtml.CacheRepresenter object>'
p358
sS'k'
S"'placa'"
p359
sS'search_widget'
p360
S'<function <lambda>>'
p361
sS'view_form'
p362
S'None'
p363
sS'links'
p364
S'([<function <lambda>>],)'
p365
sS'ondelete'
p366
S'None'
p367
sS'sorter_icons'
p368
S'(&#x25B2;, &#x25BC;)'
p369
sS'id'
p370
S'28L'
p371
sS'maxtextlength'
p372
S'20'
p373
sS'tbody'
p374
S'<gluon.html.TBODY object>'
p375
sS'field'
p376
S'<pydal.objects.Field object>'
p377
sS'showblobs'
p378
g217
sS'details'
p379
g173
sS'csv'
p380
g173
sS'advanced_search'
p381
g173
sS'field_id'
p382
S'<pydal.objects.Field object>'
p383
sS'noconfirm'
p384
g217
sS'htmltable'
p385
S'<gluon.html.TABLE object>'
p386
sg166
S"<Storage {'body': <cStringIO.StringO object at 0...0x04052270>, 'view': 'default/ver_estoque.html'}>"
p387
sS'url'
p388
S'<function url>'
p389
sg58
S"<Storage {'_vars': <Storage {'records': []}>, 'f...s\\\\Backend\\\\RAFA\\\\web2py\\\\applications\\\\RAFA\\\\'}>"
p390
sS'buttons_placement'
p391
S"'right'"
p392
sS'right_cols'
p393
S'1'
sS'order'
p394
S"''"
p395
sS'left'
p396
S'[<pydal.objects.Expression object>]'
p397
sssS'traceback'
p398
S'Traceback (most recent call last):\n  File "C:\\Users\\Gabriel\\Documents\\Backend\\RAFA\\web2py\\gluon\\restricted.py", line 219, in restricted\n    exec(ccode, environment)\n  File "C:\\Users\\Gabriel\\Documents\\Backend\\RAFA\\web2py\\applications\\RAFA\\controllers/default.py", line 290, in <module>\n  File "C:\\Users\\Gabriel\\Documents\\Backend\\RAFA\\web2py\\gluon\\globals.py", line 409, in <lambda>\n    self._caller = lambda f: f()\n  File "C:\\Users\\Gabriel\\Documents\\Backend\\RAFA\\web2py\\applications\\RAFA\\controllers/default.py", line 264, in ver_estoque\n    links=links)\n  File "C:\\Users\\Gabriel\\Documents\\Backend\\RAFA\\web2py\\gluon\\sqlhtml.py", line 2923, in grid\n    if link(row):\nTypeError: \'list\' object is not callable\n'
p399
s.